(lp0
(lp1
I2
aI2
aI0
aI2
aI4
aI2
aI4
aa(lp2
I2
aI3
aI0
aI3
aI2
aI4
aI3
aa(lp3
I3
aI3
aI0
aI2
aI3
aI4
aI3
aa(lp4
I3
aI6
aI0
aI3
aI1
aI4
aI4
aa(lp5
I5
aI4
aI0
aI2
aI2
aI6
aI2
aa(lp6
I5
aI7
aI0
aI3
aI0
aI6
aI3
aa(lp7
I0
aI3
aI0
aI2
aI3
aI2
aI4
aa(lp8
I0
aI4
aI0
aI3
aI1
aI4
aI3
aa(lp9
I1
aI1
aI0
aI2
aI4
aI2
aI3
aa(lp10
I1
aI1
aI0
aI3
aI3
aI1
aI4
aa(lp11
I1
aI2
aI0
aI2
aI4
aI2
aI3
aa(lp12
I1
aI2
aI0
aI3
aI1
aI2
aI5
aa(lp13
I1
aI3
aI0
aI3
aI2
aI4
aI2
aa(lp14
I2
aI0
aI0
aI3
aI4
aI0
aI4
aa(lp15
I2
aI1
aI0
aI3
aI3
aI2
aI3
aa(lp16
I2
aI2
aI0
aI2
aI3
aI4
aI2
aa(lp17
I2
aI5
aI0
aI3
aI1
aI4
aI3
aa(lp18
I3
aI2
aI0
aI3
aI2
aI4
aI2
aa(lp19
I3
aI4
aI0
aI2
aI3
aI2
aI4
aa(lp20
I4
aI3
aI0
aI2
aI2
aI6
aI1
aa(lp21
I4
aI5
aI0
aI2
aI2
aI4
aI3
aa(lp22
I4
aI6
aI0
aI3
aI0
aI6
aI2
aa(lp23
I1
aI0
aI0
aI3
aI3
aI2
aI2
aa(lp24
I1
aI0
aI0
aI3
aI4
aI0
aI3
aa(lp25
I1
aI1
aI0
aI2
aI4
aI2
aI2
aa(lp26
I2
aI1
aI0
aI3
aI2
aI4
aI1
aa(lp27
I2
aI2
aI0
aI0
aI5
aI3
aI2
aa(lp28
I2
aI3
aI0
aI0
aI3
aI4
aI3
aa(lp29
I2
aI3
aI0
aI2
aI3
aI2
aI3
aa(lp30
I2
aI5
aI0
aI1
aI3
aI3
aI3
aa(lp31
I2
aI6
aI0
aI1
aI1
aI4
aI4
aa(lp32
I3
aI3
aI0
aI0
aI4
aI5
aI1
aa(lp33
I3
aI4
aI0
aI2
aI2
aI4
aI2
aa(lp34
I3
aI6
aI0
aI1
aI2
aI5
aI2
aa(lp35
I4
aI8
aI0
aI0
aI2
aI4
aI4
aa(lp36
I4
aI11
aI0
aI1
aI0
aI4
aI5
aa(lp37
I0
aI1
aI0
aI0
aI6
aI1
aI2
aa(lp38
I0
aI2
aI0
aI0
aI4
aI2
aI3
aa(lp39
I0
aI2
aI0
aI1
aI4
aI3
aI1
aa(lp40
I0
aI3
aI0
aI1
aI2
aI4
aI2
aa(lp41
I1
aI1
aI0
aI0
aI5
aI3
aI1
aa(lp42
I1
aI1
aI0
aI1
aI3
aI4
aI1
aa(lp43
I1
aI2
aI0
aI0
aI3
aI4
aI2
aa(lp44
I1
aI4
aI0
aI1
aI3
aI3
aI2
aa(lp45
I1
aI5
aI0
aI1
aI1
aI4
aI3
aa(lp46
I2
aI0
aI0
aI3
aI2
aI0
aI4
aa(lp47
I2
aI2
aI0
aI0
aI4
aI5
aI0
aa(lp48
I2
aI3
aI0
aI0
aI3
aI4
aI2
aa(lp49
I2
aI3
aI0
aI3
aI1
aI2
aI3
aa(lp50
I2
aI5
aI0
aI1
aI2
aI5
aI1
aa(lp51
I3
aI3
aI0
aI3
aI0
aI4
aI2
aa(lp52
I3
aI4
aI0
aI3
aI0
aI4
aI2
aa(lp53
I3
aI6
aI0
aI1
aI2
aI4
aI2
aa(lp54
I3
aI7
aI0
aI0
aI2
aI4
aI3
aa(lp55
I3
aI10
aI0
aI1
aI0
aI4
aI4
aa(lp56
I4
aI9
aI0
aI0
aI2
aI4
aI3
aa(lp57
I0
aI0
aI0
aI0
aI4
aI4
aI0
aa(lp58
I0
aI0
aI0
aI1
aI3
aI4
aI0
aa(lp59
I0
aI0
aI0
aI1
aI4
aI2
aI1
aa(lp60
I1
aI0
aI0
aI3
aI2
aI0
aI3
aa(lp61
I1
aI1
aI0
aI2
aI1
aI3
aI2
aa(lp62
I1
aI2
aI0
aI0
aI3
aI4
aI1
aa(lp63
I1
aI2
aI0
aI3
aI1
aI2
aI2
aa(lp64
I2
aI1
aI0
aI2
aI2
aI2
aI2
aa(lp65
I2
aI2
aI0
aI0
aI4
aI2
aI2
aa(lp66
I2
aI3
aI0
aI1
aI2
aI4
aI1
aa(lp67
I2
aI3
aI0
aI3
aI0
aI4
aI1
aa(lp68
I2
aI5
aI0
aI1
aI2
aI4
aI1
aa(lp69
I3
aI2
aI0
aI0
aI3
aI4
aI1
aa(lp70
I3
aI2
aI0
aI2
aI0
aI5
aI1
aa(lp71
I3
aI5
aI0
aI1
aI1
aI4
aI2
aa(lp72
I3
aI8
aI0
aI0
aI2
aI4
aI2
aa(lp73
I1
aI0
aI0
aI1
aI3
aI2
aI1
aa(lp74
I1
aI0
aI0
aI1
aI4
aI0
aI2
aa(lp75
I1
aI1
aI0
aI0
aI4
aI2
aI1
aa(lp76
I1
aI1
aI0
aI1
aI1
aI4
aI1
aa(lp77
I1
aI2
aI0
aI1
aI2
aI3
aI1
aa(lp78
I2
aI3
aI0
aI0
aI2
aI2
aI3
aa(lp79
I2
aI3
aI0
aI0
aI3
aI2
aI2
aa(lp80
I2
aI6
aI0
aI1
aI0
aI2
aI4
aa(lp81
I2
aI7
aI0
aI1
aI0
aI2
aI4
aa(lp82
I3
aI8
aI0
aI1
aI0
aI4
aI2
aa(lp83
I0
aI0
aI0
aI0
aI3
aI0
aI3
aa(lp84
I0
aI0
aI0
aI1
aI1
aI4
aI0
aa(lp85
I0
aI0
aI0
aI1
aI2
aI2
aI1
aa(lp86
I0
aI1
aI0
aI0
aI1
aI3
aI2
aa(lp87
I0
aI2
aI0
aI0
aI3
aI0
aI3
aa(lp88
I0
aI3
aI0
aI1
aI1
aI2
aI2
aa(lp89
I1
aI1
aI0
aI0
aI2
aI2
aI2
aa(lp90
I1
aI2
aI0
aI1
aI1
aI4
aI0
aa(lp91
I2
aI1
aI0
aI1
aI2
aI2
aI1
aa(lp92
I2
aI2
aI0
aI1
aI1
aI2
aI2
aa(lp93
I2
aI5
aI0
aI0
aI2
aI2
aI2
aa(lp94
I2
aI6
aI0
aI0
aI0
aI3
aI3
aa(lp95
I2
aI7
aI0
aI1
aI0
aI4
aI1
aa(lp96
I1
aI0
aI0
aI0
aI3
aI0
aI2
aa(lp97
I1
aI0
aI0
aI1
aI2
aI0
aI2
aa(lp98
I1
aI0
aI0
aI1
aI2
aI0
aI2
aa(lp99
I1
aI1
aI0
aI1
aI1
aI2
aI1
aa(lp100
I1
aI2
aI0
aI1
aI1
aI2
aI1
aa(lp101
I0
aI2
aI0
aI1
aI0
aI0
aI3
aa(lp102
I0
aI1
aI0
aI0
aI0
aI1
aI2
aa(lp103
I0
aI0
aI0
aI1
aI0
aI0
aI1
aa(lp104
I0
aI0
aI0
aI1
aI0
aI0
aI0
aa.