(lp0
F0.9999988000006607
aF0.9999988000006607
aF0.9999988000006607
aF0.9999988000006607
aF0.9999988000006607
aF0.9999988000006607
aF0.9999989000005506
aF0.9999989000005506
aF0.9999989000005506
aF0.9999989000005506
aF0.9999989000005506
aF0.9999989000005506
aF0.9999989000005506
aF0.9999989000005506
aF0.9999989000005506
aF0.9999989000005506
aF0.9999989000005506
aF0.9999989000005506
aF0.9999989000005506
aF0.9999989000005506
aF0.9999989000005506
aF0.9999989000005506
aF0.9999990000004505
aF0.9999990000004505
aF0.9999990000004505
aF0.9999990000004505
aF0.9999990000004505
aF0.9999990000004505
aF0.9999990000004505
aF0.9999990000004505
aF0.9999990000004505
aF0.9999990000004505
aF0.9999990000004505
aF0.9999990000004505
aF0.9999990000004505
aF0.9999990000004505
aF0.9999991000003604
aF0.9999991000003604
aF0.9999991000003604
aF0.9999991000003604
aF0.9999991000003604
aF0.9999991000003604
aF0.9999991000003604
aF0.9999991000003604
aF0.9999991000003604
aF0.9999991000003604
aF0.9999991000003604
aF0.9999991000003604
aF0.9999991000003604
aF0.9999991000003604
aF0.9999991000003604
aF0.9999991000003604
aF0.9999991000003604
aF0.9999991000003604
aF0.9999991000003604
aF0.9999991000003604
aF0.9999992000002803
aF0.9999992000002803
aF0.9999992000002803
aF0.9999992000002803
aF0.9999992000002803
aF0.9999992000002803
aF0.9999992000002803
aF0.9999992000002803
aF0.9999992000002803
aF0.9999992000002803
aF0.9999992000002803
aF0.9999992000002803
aF0.9999992000002803
aF0.9999992000002803
aF0.9999992000002803
aF0.9999992000002803
aF0.9999993000002102
aF0.9999993000002102
aF0.9999993000002102
aF0.9999993000002102
aF0.9999993000002102
aF0.9999993000002102
aF0.9999993000002102
aF0.9999993000002102
aF0.9999993000002102
aF0.9999993000002102
aF0.9999994000001502
aF0.9999994000001502
aF0.9999994000001502
aF0.9999994000001502
aF0.9999994000001502
aF0.9999994000001502
aF0.9999994000001502
aF0.9999994000001502
aF0.9999994000001502
aF0.9999994000001502
aF0.9999994000001502
aF0.9999994000001502
aF0.9999994000001502
aF0.9999995000001002
aF0.9999995000001002
aF0.9999995000001002
aF0.9999995000001002
aF0.9999995000001002
aF0.9999996000000602
aF0.9999997000000301
aF0.9999998000000101
aF0.9999999
a.