(lp0
(lp1
I1
aI2
aI0
aI3
aI4
aI0
aI2
aa(lp2
I3
aI2
aI0
aI3
aI4
aI0
aI2
aa(lp3
I0
aI2
aI0
aI1
aI4
aI0
aI2
aa(lp4
I1
aI1
aI0
aI3
aI2
aI0
aI2
aa(lp5
I1
aI2
aI0
aI3
aI2
aI0
aI2
aa(lp6
I2
aI2
aI0
aI3
aI2
aI0
aI2
aa(lp7
I3
aI1
aI0
aI3
aI2
aI0
aI2
aa(lp8
I3
aI3
aI0
aI1
aI4
aI0
aI2
aa(lp9
I1
aI1
aI0
aI1
aI3
aI0
aI2
aa(lp10
I1
aI3
aI0
aI1
aI3
aI0
aI2
aa(lp11
I2
aI3
aI0
aI1
aI3
aI0
aI2
aa(lp12
I3
aI3
aI0
aI1
aI3
aI0
aI2
aa(lp13
I0
aI2
aI0
aI0
aI3
aI0
aI2
aa(lp14
I1
aI1
aI0
aI3
aI0
aI0
aI2
aa(lp15
I1
aI2
aI0
aI0
aI3
aI0
aI2
aa(lp16
I1
aI2
aI0
aI0
aI3
aI0
aI2
aa(lp17
I2
aI1
aI0
aI3
aI0
aI0
aI2
aa(lp18
I2
aI2
aI0
aI0
aI3
aI0
aI2
aa(lp19
I1
aI1
aI0
aI1
aI1
aI0
aI2
aa(lp20
I1
aI2
aI0
aI1
aI1
aI0
aI2
aa(lp21
I1
aI3
aI0
aI1
aI1
aI0
aI2
aa(lp22
I3
aI2
aI0
aI1
aI1
aI0
aI2
aa(lp23
I0
aI2
aI0
aI1
aI0
aI0
aI2
aa(lp24
I2
aI1
aI0
aI1
aI0
aI0
aI2
aa.