(lp0
F0.9988006597800497
aF0.9989005498350332
aF0.9989005498350332
aF0.9989005498350332
aF0.9989005498350332
aF0.9990004498800211
aF0.9990004498800211
aF0.9990004498800211
aF0.9990004498800211
aF0.9990004498800211
aF0.9990004498800211
aF0.9990004498800211
aF0.9990004498800211
aF0.9991003599160128
aF0.9991003599160128
aF0.9991003599160128
aF0.9991003599160128
aF0.9991003599160128
aF0.9991003599160128
aF0.9991003599160128
aF0.9991003599160128
aF0.9991003599160128
aF0.9991003599160128
aF0.9991003599160128
aF0.9992002799440072
aF0.9992002799440072
aF0.9992002799440072
aF0.9992002799440072
aF0.9992002799440072
aF0.9992002799440072
aF0.9992002799440072
aF0.9992002799440072
aF0.9992002799440072
aF0.9993002099650037
aF0.9993002099650037
aF0.9993002099650037
aF0.9993002099650037
aF0.9993002099650037
aF0.9993002099650037
aF0.9994001499800017
aF0.9994001499800017
aF0.9994001499800017
aF0.9994001499800017
aF0.9994001499800017
aF0.9994001499800017
aF0.9994001499800017
aF0.9994001499800017
aF0.9994001499800017
aF0.9994001499800017
aF0.9994001499800017
aF0.9994001499800017
aF0.9994001499800017
aF0.9994001499800017
aF0.9994001499800017
aF0.9994001499800017
aF0.9995000999900007
aF0.9995000999900007
aF0.9995000999900007
aF0.9995000999900007
aF0.9995000999900007
aF0.9995000999900007
aF0.9995000999900007
aF0.9995000999900007
aF0.9996000599960002
aF0.9996000599960002
aF0.9996000599960002
aF0.9996000599960002
aF0.9996000599960002
aF0.9996000599960002
aF0.9996000599960002
aF0.9996000599960002
aF0.9996000599960002
aF0.9996000599960002
aF0.9997000299990001
aF0.9997000299990001
aF0.9997000299990001
aF0.9997000299990001
aF0.9998000100000001
aF0.9998000100000001
aF0.9999
aF0.9999
a.