(lp0
(lp1
(lp2
I1
aS'off'
p3
aa(lp4
I2
aS'off'
p5
aa(lp6
I3
aS'off'
p7
aa(lp8
I4
aS'on'
p9
aa(lp10
I8
aS'off'
p11
aa(lp12
I12
aS'on'
p13
aa(lp14
I20
aS'on'
p15
aa(lp16
I19
aS'off'
p17
aa(lp18
I18
aS'off'
p19
aa(lp20
I17
aS'on'
p21
aa(lp22
I13
aS'off'
p23
aa(lp24
I9
aS'off'
p25
aa(lp26
I5
aS'on'
p27
aa(lp28
I6
aS'off'
p29
aa(lp30
I7
aS'on'
p31
aa(lp32
I11
aS'off'
p33
aa(lp34
I16
aS'on'
p35
aa(lp36
I15
aS'off'
p37
aa(lp38
I14
aS'on'
p39
aa(lp40
I6
aS'off'
p41
aa(lp42
I1
aS'off'
p43
aaa(lp44
g2
ag4
ag6
ag8
ag10
ag12
ag14
ag16
ag18
ag20
ag22
ag24
ag26
ag28
ag30
a(lp45
I11
aS'on'
p46
aa(lp47
I10
aS'on'
p48
aa(lp49
I15
aS'on'
p50
aa(lp51
I14
ag39
aa(lp52
I6
ag41
aa(lp53
I1
ag43
aaa(lp54
g2
ag4
a(lp55
I3
aS'on'
p56
aa(lp57
I7
aS'off'
p58
aa(lp59
I11
ag33
aa(lp60
I16
ag35
aa(lp61
I15
ag37
aa(lp62
I14
aS'off'
p63
aa(lp64
I13
aS'on'
p65
aa(lp66
I9
ag25
aa(lp67
I5
ag27
aa(lp68
I6
ag29
aa(lp69
I7
aS'off'
p70
aa(lp71
I8
aS'on'
p72
aa(lp73
I12
ag13
aa(lp74
I20
ag15
aa(lp75
I19
ag17
aa(lp76
I18
aS'on'
p77
aa(lp78
I14
aS'off'
p79
aa(lp80
I6
ag41
aa(lp81
I1
ag43
aaa(lp82
g2
ag4
ag55
ag57
a(lp83
I11
ag46
aa(lp84
I10
ag48
aa(lp85
I15
ag50
aa(lp86
I14
ag63
aa(lp87
I13
ag65
aa(lp88
I9
ag25
aa(lp89
I5
ag27
aa(lp90
I6
ag29
aa(lp91
I7
ag70
aa(lp92
I8
ag72
aa(lp93
I12
ag13
aa(lp94
I20
ag15
aa(lp95
I19
ag17
aa(lp96
I18
ag77
aa(lp97
I14
ag79
aa(lp98
I6
ag41
aa(lp99
I1
ag43
aaa(lp100
(lp101
I5
aS'off'
p102
aa(lp103
I6
ag29
aa(lp104
I7
ag31
aa(lp105
I11
ag33
aa(lp106
I16
ag35
aa(lp107
I15
ag37
aa(lp108
I14
ag39
aa(lp109
I6
ag41
aa(lp110
I1
aS'on'
p111
aa(lp112
I2
ag5
aa(lp113
I3
ag7
aa(lp114
I4
ag9
aa(lp115
I8
ag11
aa(lp116
I12
ag13
aa(lp117
I20
ag15
aa(lp118
I19
ag17
aa(lp119
I18
ag19
aa(lp120
I17
ag21
aa(lp121
I13
ag23
aa(lp122
I9
ag25
aa(lp123
I5
aS'off'
p124
aaa(lp125
g101
ag103
ag104
a(lp126
I11
ag46
aa(lp127
I10
ag48
aa(lp128
I15
ag50
aa(lp129
I14
ag39
aa(lp130
I6
ag41
aa(lp131
I1
ag111
aa(lp132
I2
ag5
aa(lp133
I3
ag7
aa(lp134
I4
ag9
aa(lp135
I8
ag11
aa(lp136
I12
ag13
aa(lp137
I20
ag15
aa(lp138
I19
ag17
aa(lp139
I18
ag19
aa(lp140
I17
ag21
aa(lp141
I13
ag23
aa(lp142
I9
ag25
aa(lp143
I5
ag124
aaa(lp144
(lp145
I20
aS'off'
p146
aa(lp147
I19
ag17
aa(lp148
I18
ag19
aa(lp149
I17
ag21
aa(lp150
I13
ag23
aa(lp151
I9
ag25
aa(lp152
I5
ag27
aa(lp153
I6
ag29
aa(lp154
I7
ag31
aa(lp155
I11
ag33
aa(lp156
I16
ag35
aa(lp157
I15
ag37
aa(lp158
I14
ag39
aa(lp159
I6
ag41
aa(lp160
I1
ag111
aa(lp161
I2
ag5
aa(lp162
I3
ag7
aa(lp163
I4
ag9
aa(lp164
I8
ag11
aa(lp165
I12
ag13
aa(lp166
I20
aS'off'
p167
aaa(lp168
g145
ag147
ag148
ag149
ag150
ag151
ag152
ag153
ag154
a(lp169
I11
ag46
aa(lp170
I10
ag48
aa(lp171
I15
ag50
aa(lp172
I14
ag39
aa(lp173
I6
ag41
aa(lp174
I1
ag111
aa(lp175
I2
ag5
aa(lp176
I3
ag7
aa(lp177
I4
ag9
aa(lp178
I8
ag11
aa(lp179
I12
ag13
aa(lp180
I20
ag167
aaa(lp181
(lp182
I12
ag13
aa(lp183
I20
ag15
aa(lp184
I19
ag17
aa(lp185
I18
ag19
aa(lp186
I17
ag21
aa(lp187
I13
ag23
aa(lp188
I9
ag25
aa(lp189
I5
ag27
aa(lp190
I6
ag29
aa(lp191
I7
ag31
aa(lp192
I11
ag33
aa(lp193
I16
ag35
aa(lp194
I15
ag37
aa(lp195
I14
ag39
aa(lp196
I6
ag41
aa(lp197
I1
ag111
aa(lp198
I2
aS'on'
p199
aa(lp200
I10
aS'off'
p201
aa(lp202
I15
aS'off'
p203
aa(lp204
I19
aS'off'
p205
aaa(lp206
(lp207
I16
aS'off'
p208
aa(lp209
I15
ag37
aa(lp210
I14
ag63
aa(lp211
I13
ag65
aa(lp212
I9
ag25
aa(lp213
I5
ag27
aa(lp214
I6
ag29
aa(lp215
I7
ag70
aa(lp216
I8
ag72
aa(lp217
I12
ag13
aa(lp218
I20
ag15
aa(lp219
I19
ag17
aa(lp220
I18
ag77
aa(lp221
I14
ag79
aa(lp222
I6
ag41
aa(lp223
I1
ag111
aa(lp224
I2
ag199
aa(lp225
I10
ag201
aa(lp226
I15
ag203
aa(lp227
I19
ag205
aaa(lp228
g2
ag4
ag6
ag8
ag10
ag12
ag14
ag16
ag18
ag20
ag22
ag24
ag26
ag28
ag30
ag32
ag34
a(lp229
I15
aS'on'
p230
aa(lp231
I19
ag205
aaa(lp232
g2
ag4
ag6
ag8
ag10
ag12
ag14
ag16
ag18
ag20
ag22
ag24
ag26
ag28
ag30
ag45
ag47
a(lp233
I15
ag203
aa(lp234
I19
ag205
aaa(lp235
g2
ag4
ag6
ag8
ag10
ag12
ag14
ag16
a(lp236
I18
ag77
aa(lp237
I14
aS'on'
p238
aa(lp239
I13
ag65
aa(lp240
I9
ag25
aa(lp241
I5
ag27
aa(lp242
I6
ag29
aa(lp243
I7
ag31
aa(lp244
I11
ag33
aa(lp245
I16
ag35
aa(lp246
I15
ag230
aa(lp247
I19
ag205
aaa(lp248
g2
ag4
ag6
ag8
ag10
ag12
ag14
ag16
ag236
ag237
ag239
ag240
ag241
ag242
ag243
a(lp249
I11
ag46
aa(lp250
I10
ag48
aa(lp251
I15
ag203
aa(lp252
I19
ag205
aaa(lp253
g145
ag147
ag148
ag149
ag150
ag151
ag152
ag153
ag154
ag155
ag156
ag157
ag158
ag159
ag160
a(lp254
I2
ag199
aa(lp255
I10
ag201
aa(lp256
I15
ag203
aa(lp257
I19
ag205
aaa(lp258
g2
ag4
ag55
ag57
ag59
ag60
a(lp259
I15
ag230
aa(lp260
I19
aS'on'
p261
aa(lp262
I18
ag19
aa(lp263
I17
ag21
aa(lp264
I13
ag23
aa(lp265
I9
ag25
aa(lp266
I5
ag27
aa(lp267
I6
ag29
aa(lp268
I7
ag70
aa(lp269
I8
ag72
aa(lp270
I12
ag13
aa(lp271
I20
ag167
aaa(lp272
g2
ag4
ag55
ag57
ag59
ag60
ag259
ag260
a(lp273
I18
ag77
aa(lp274
I14
ag238
aa(lp275
I13
ag65
aa(lp276
I9
ag25
aa(lp277
I5
ag27
aa(lp278
I6
ag29
aa(lp279
I7
ag70
aa(lp280
I8
ag72
aa(lp281
I12
ag13
aa(lp282
I20
ag167
aaa(lp283
g2
ag4
ag55
ag57
ag83
a(lp284
I10
aS'off'
p285
aa(lp286
I9
aS'on'
p287
aa(lp288
I5
ag27
aa(lp289
I6
ag29
aa(lp290
I7
ag70
aa(lp291
I8
ag72
aa(lp292
I12
ag13
aa(lp293
I20
ag15
aa(lp294
I19
ag17
aa(lp295
I18
ag77
aa(lp296
I14
ag79
aa(lp297
I6
ag41
aa(lp298
I1
ag43
aaa(lp299
g2
ag4
ag55
ag57
ag83
ag84
a(lp300
I15
ag203
aa(lp301
I19
ag261
aa(lp302
I18
ag19
aa(lp303
I17
ag21
aa(lp304
I13
ag23
aa(lp305
I9
ag25
aa(lp306
I5
ag27
aa(lp307
I6
ag29
aa(lp308
I7
ag70
aa(lp309
I8
ag72
aa(lp310
I12
ag13
aa(lp311
I20
ag167
aaa(lp312
g2
ag4
ag55
ag57
ag83
ag84
ag300
ag301
a(lp313
I18
ag77
aa(lp314
I14
ag238
aa(lp315
I13
ag65
aa(lp316
I9
ag25
aa(lp317
I5
ag27
aa(lp318
I6
ag29
aa(lp319
I7
ag70
aa(lp320
I8
ag72
aa(lp321
I12
ag13
aa(lp322
I20
ag167
aaa(lp323
g2
a(lp324
I2
ag199
aa(lp325
I10
ag201
aa(lp326
I15
ag50
aa(lp327
I14
ag63
aa(lp328
I13
ag65
aa(lp329
I9
ag25
aa(lp330
I5
ag27
aa(lp331
I6
ag29
aa(lp332
I7
ag70
aa(lp333
I8
ag72
aa(lp334
I12
ag13
aa(lp335
I20
ag15
aa(lp336
I19
ag17
aa(lp337
I18
ag77
aa(lp338
I14
ag79
aa(lp339
I6
ag41
aa(lp340
I1
ag43
aaa(lp341
g101
ag103
ag104
ag105
ag106
ag107
ag108
ag109
ag110
a(lp342
I2
ag199
aa(lp343
I10
ag201
aa(lp344
I15
ag203
aa(lp345
I19
ag261
aa(lp346
I18
ag19
aa(lp347
I17
ag21
aa(lp348
I13
ag23
aa(lp349
I9
ag25
aa(lp350
I5
ag124
aaa(lp351
g2
ag4
ag6
ag8
ag10
ag12
ag14
ag16
ag18
ag20
ag22
ag24
ag26
ag28
ag30
ag32
a(lp352
I16
aS'off'
p353
aaa(lp354
g2
ag4
ag6
ag8
ag10
ag12
ag14
ag16
ag236
ag237
ag239
ag240
ag241
ag242
ag243
ag244
a(lp355
I16
ag353
aaa(lp356
g2
ag4
ag55
ag57
ag59
ag60
ag61
ag62
ag64
ag66
ag67
ag68
ag69
ag71
ag73
ag74
a(lp357
I19
aS'on'
p358
aaa(lp359
g2
ag4
ag55
ag57
ag83
ag84
ag85
ag86
ag87
ag88
ag89
ag90
ag91
ag92
ag93
ag94
a(lp360
I19
ag358
aaa(lp361
g101
ag103
ag104
ag105
ag106
a(lp362
I15
ag230
aa(lp363
I19
ag261
aa(lp364
I18
ag77
aa(lp365
I14
ag79
aa(lp366
I6
ag41
aa(lp367
I1
ag111
aa(lp368
I2
ag5
aa(lp369
I3
ag7
aa(lp370
I4
ag9
aa(lp371
I8
ag11
aa(lp372
I12
ag13
aa(lp373
I20
ag167
aaa(lp374
g101
ag103
ag104
ag126
ag127
a(lp375
I15
ag203
aa(lp376
I19
ag261
aa(lp377
I18
ag77
aa(lp378
I14
ag79
aa(lp379
I6
ag41
aa(lp380
I1
ag111
aa(lp381
I2
ag5
aa(lp382
I3
ag7
aa(lp383
I4
ag9
aa(lp384
I8
ag11
aa(lp385
I12
ag13
aa(lp386
I20
ag167
aaa(lp387
g182
ag183
ag184
ag185
ag186
ag187
ag188
ag189
a(lp388
I6
aS'on'
p389
aa(lp390
I1
ag111
aa(lp391
I2
ag5
aa(lp392
I3
ag56
aa(lp393
I7
ag58
aa(lp394
I11
ag33
aa(lp395
I16
ag35
aa(lp396
I15
ag230
aa(lp397
I19
ag205
aaa(lp398
g182
ag183
ag184
ag185
ag186
ag187
ag188
ag189
ag388
ag390
ag391
ag392
ag393
a(lp399
I11
ag46
aa(lp400
I10
ag48
aa(lp401
I15
ag203
aa(lp402
I19
ag205
aaa(lp403
g182
ag183
ag184
a(lp404
I18
ag77
aa(lp405
I14
ag238
aa(lp406
I13
ag65
aa(lp407
I9
ag25
aa(lp408
I5
ag27
aa(lp409
I6
ag389
aa(lp410
I1
ag111
aa(lp411
I2
ag5
aa(lp412
I3
ag56
aa(lp413
I7
ag58
aa(lp414
I11
ag33
aa(lp415
I16
ag35
aa(lp416
I15
ag230
aa(lp417
I19
ag205
aaa(lp418
g182
ag183
ag184
ag404
ag405
ag406
ag407
ag408
ag409
ag410
ag411
ag412
ag413
a(lp419
I11
ag46
aa(lp420
I10
ag48
aa(lp421
I15
ag203
aa(lp422
I19
ag205
aaa(lp423
g207
ag209
a(lp424
I14
ag39
aa(lp425
I6
ag41
aa(lp426
I1
ag111
aa(lp427
I2
ag5
aa(lp428
I3
ag7
aa(lp429
I4
ag9
aa(lp430
I8
ag11
aa(lp431
I12
ag13
aa(lp432
I20
ag15
aa(lp433
I19
ag17
aa(lp434
I18
ag19
aa(lp435
I17
ag21
aa(lp436
I13
ag23
aa(lp437
I9
ag25
aa(lp438
I5
ag124
aaa(lp439
g207
ag209
ag424
ag425
ag426
ag427
a(lp440
I3
ag56
aa(lp441
I7
ag58
aa(lp442
I11
ag46
aa(lp443
I10
ag48
aa(lp444
I15
ag203
aa(lp445
I19
ag261
aa(lp446
I18
ag19
aa(lp447
I17
ag21
aa(lp448
I13
ag23
aa(lp449
I9
ag25
aa(lp450
I5
ag124
aaa(lp451
g207
ag209
ag424
ag425
ag426
ag427
ag440
a(lp452
I7
aS'on'
p453
aa(lp454
I8
ag72
aa(lp455
I12
ag13
aa(lp456
I20
ag15
aa(lp457
I19
ag17
aa(lp458
I18
ag19
aa(lp459
I17
ag21
aa(lp460
I13
ag23
aa(lp461
I9
ag25
aa(lp462
I5
ag124
aaa(lp463
g2
ag4
ag6
ag8
ag10
ag12
ag14
ag16
ag236
a(lp464
I14
ag79
aa(lp465
I6
aS'on'
p466
aa(lp467
I7
ag31
aa(lp468
I11
ag33
aa(lp469
I16
ag35
aa(lp470
I15
ag230
aa(lp471
I19
ag205
aaa(lp472
g2
ag4
ag6
ag8
ag10
ag12
ag14
ag16
ag236
ag464
ag465
ag467
a(lp473
I11
ag46
aa(lp474
I10
ag48
aa(lp475
I15
ag203
aa(lp476
I19
ag205
aaa(lp477
g2
ag4
ag55
ag57
ag59
ag60
ag61
ag62
ag64
ag66
ag67
ag68
ag69
ag71
ag73
a(lp478
I20
ag167
aaa(lp479
g2
ag4
ag55
ag57
ag83
ag84
ag85
ag86
ag87
ag88
ag89
ag90
ag91
ag92
ag93
a(lp480
I20
ag167
aaa(lp481
g207
ag209
ag210
ag211
ag212
ag213
ag214
ag215
ag216
ag217
ag218
ag219
ag220
ag221
ag222
a(lp482
I1
ag43
aaa(lp483
g207
ag209
ag210
ag211
ag212
ag213
ag214
a(lp484
I7
ag31
aa(lp485
I11
ag46
aa(lp486
I10
ag48
aa(lp487
I15
ag203
aa(lp488
I19
ag261
aa(lp489
I18
ag77
aa(lp490
I14
ag79
aa(lp491
I6
ag41
aa(lp492
I1
ag43
aaa(lp493
g145
ag147
ag148
ag149
ag150
ag151
ag152
a(lp494
I6
ag389
aa(lp495
I1
ag111
aa(lp496
I2
ag5
aa(lp497
I3
ag56
aa(lp498
I7
ag58
aa(lp499
I11
ag33
aa(lp500
I16
ag35
aa(lp501
I15
ag230
aa(lp502
I19
ag205
aaa(lp503
g145
ag147
ag148
ag149
ag150
ag151
ag152
ag494
ag495
ag496
ag497
ag498
a(lp504
I11
ag46
aa(lp505
I10
ag48
aa(lp506
I15
ag203
aa(lp507
I19
ag205
aaa(lp508
g145
ag147
a(lp509
I18
ag77
aa(lp510
I14
ag238
aa(lp511
I13
ag65
aa(lp512
I9
ag25
aa(lp513
I5
ag27
aa(lp514
I6
ag389
aa(lp515
I1
ag111
aa(lp516
I2
ag5
aa(lp517
I3
ag56
aa(lp518
I7
ag58
aa(lp519
I11
ag33
aa(lp520
I16
ag35
aa(lp521
I15
ag230
aa(lp522
I19
ag205
aaa(lp523
g145
ag147
ag509
ag510
ag511
ag512
ag513
ag514
ag515
ag516
ag517
ag518
a(lp524
I11
ag46
aa(lp525
I10
ag48
aa(lp526
I15
ag203
aa(lp527
I19
ag205
aaa(lp528
g2
ag4
ag6
ag8
ag10
ag12
ag14
ag16
ag18
ag20
ag22
ag24
ag26
a(lp529
I6
ag389
aa(lp530
I1
ag43
aaa(lp531
g2
ag4
ag6
ag8
ag10
ag12
ag14
ag16
ag236
ag237
ag239
ag240
ag241
a(lp532
I6
ag389
aa(lp533
I1
ag43
aaa(lp534
g2
ag4
ag55
ag57
ag59
ag60
ag259
ag260
ag262
ag263
ag264
ag265
ag266
a(lp535
I6
ag389
aa(lp536
I1
ag43
aaa(lp537
g2
ag4
ag55
ag57
ag59
ag60
ag259
ag260
ag273
a(lp538
I14
ag79
aa(lp539
I6
ag466
aa(lp540
I7
ag70
aa(lp541
I8
ag72
aa(lp542
I12
ag13
aa(lp543
I20
ag167
aaa(lp544
g2
ag4
ag55
ag57
ag59
ag60
ag259
ag260
ag273
ag274
ag275
ag276
ag277
a(lp545
I6
ag389
aa(lp546
I1
ag43
aaa(lp547
g2
ag4
ag55
ag57
ag83
ag84
ag300
ag301
ag302
ag303
ag304
ag305
ag306
a(lp548
I6
ag389
aa(lp549
I1
ag43
aaa(lp550
g2
ag4
ag55
ag57
ag83
ag84
ag300
ag301
ag313
a(lp551
I14
ag79
aa(lp552
I6
ag466
aa(lp553
I7
ag70
aa(lp554
I8
ag72
aa(lp555
I12
ag13
aa(lp556
I20
ag167
aaa(lp557
g2
ag4
ag55
ag57
ag83
ag84
ag300
ag301
ag313
ag314
ag315
ag316
ag317
a(lp558
I6
ag389
aa(lp559
I1
ag43
aaa(lp560
g2
ag4
ag55
a(lp561
I7
ag453
aa(lp562
I8
ag72
aa(lp563
I12
ag13
aa(lp564
I20
ag15
aa(lp565
I19
ag17
aa(lp566
I18
ag19
aa(lp567
I17
ag21
aa(lp568
I13
ag23
aa(lp569
I9
ag25
aa(lp570
I5
ag27
aa(lp571
I6
ag389
aa(lp572
I1
ag43
aaa(lp573
g2
ag4
ag55
ag561
ag562
ag563
ag564
ag565
a(lp574
I18
ag77
aa(lp575
I14
ag238
aa(lp576
I13
ag65
aa(lp577
I9
ag25
aa(lp578
I5
ag27
aa(lp579
I6
ag389
aa(lp580
I1
ag43
aaa(lp581
g2
ag324
ag325
a(lp582
I15
ag203
aa(lp583
I19
ag261
aa(lp584
I18
ag19
aa(lp585
I17
ag21
aa(lp586
I13
ag23
aa(lp587
I9
ag25
aa(lp588
I5
ag27
aa(lp589
I6
ag29
aa(lp590
I7
ag70
aa(lp591
I8
ag72
aa(lp592
I12
ag13
aa(lp593
I20
ag167
aaa(lp594
g2
ag324
ag325
ag582
ag583
a(lp595
I18
ag77
aa(lp596
I14
ag238
aa(lp597
I13
ag65
aa(lp598
I9
ag25
aa(lp599
I5
ag27
aa(lp600
I6
ag29
aa(lp601
I7
ag70
aa(lp602
I8
ag72
aa(lp603
I12
ag13
aa(lp604
I20
ag167
aaa(lp605
g2
ag324
a(lp606
I10
aS'on'
p607
aa(lp608
I9
ag287
aa(lp609
I5
ag27
aa(lp610
I6
ag29
aa(lp611
I7
ag70
aa(lp612
I8
ag72
aa(lp613
I12
ag13
aa(lp614
I20
ag15
aa(lp615
I19
ag17
aa(lp616
I18
ag77
aa(lp617
I14
ag79
aa(lp618
I6
ag41
aa(lp619
I1
ag43
aaa(lp620
g2
ag324
ag606
ag608
ag609
ag610
a(lp621
I7
ag31
aa(lp622
I11
ag33
aa(lp623
I16
ag35
aa(lp624
I15
ag230
aa(lp625
I19
ag261
aa(lp626
I18
ag77
aa(lp627
I14
ag79
aa(lp628
I6
ag41
aa(lp629
I1
ag43
aaa(lp630
g101
ag103
a(lp631
I7
ag70
aa(lp632
I8
ag72
aa(lp633
I12
ag13
aa(lp634
I20
ag15
aa(lp635
I19
ag17
aa(lp636
I18
ag77
aa(lp637
I14
ag79
aa(lp638
I6
ag41
aa(lp639
I1
ag111
aa(lp640
I2
ag199
aa(lp641
I10
ag607
aa(lp642
I9
ag287
aa(lp643
I5
ag124
aaa(lp644
g101
ag103
ag104
ag105
ag106
ag107
ag108
ag109
ag110
ag112
ag113
ag114
ag115
ag116
a(lp645
I20
ag167
aaa(lp646
g101
ag103
ag104
ag105
ag106
ag362
ag363
ag364
ag365
ag366
ag367
a(lp647
I2
ag199
aa(lp648
I10
ag607
aa(lp649
I9
ag287
aa(lp650
I5
ag124
aaa(lp651
g101
ag103
ag104
ag126
ag127
ag128
ag129
ag130
ag131
ag132
ag133
ag134
ag135
ag136
a(lp652
I20
ag167
aaa(lp653
g101
a(lp654
I6
ag389
aa(lp655
I1
ag111
aa(lp656
I2
ag5
aa(lp657
I3
ag7
aa(lp658
I4
ag9
aa(lp659
I8
ag11
aa(lp660
I12
ag13
aa(lp661
I20
ag15
aa(lp662
I19
ag17
aa(lp663
I18
ag19
aa(lp664
I17
ag21
aa(lp665
I13
ag23
aa(lp666
I9
ag25
aa(lp667
I5
ag124
aaa(lp668
g101
ag654
ag655
ag656
ag657
ag658
ag659
ag660
ag661
ag662
a(lp669
I18
ag77
aa(lp670
I14
ag238
aa(lp671
I13
ag65
aa(lp672
I9
ag25
aa(lp673
I5
ag124
aaa(lp674
g101
ag654
ag655
ag656
a(lp675
I3
ag56
aa(lp676
I7
ag58
aa(lp677
I11
ag33
aa(lp678
I16
ag35
aa(lp679
I15
ag230
aa(lp680
I19
ag261
aa(lp681
I18
ag19
aa(lp682
I17
ag21
aa(lp683
I13
ag23
aa(lp684
I9
ag25
aa(lp685
I5
ag124
aaa(lp686
g101
ag654
ag655
ag656
ag675
ag676
ag677
ag678
ag679
ag680
a(lp687
I18
ag77
aa(lp688
I14
ag238
aa(lp689
I13
ag65
aa(lp690
I9
ag25
aa(lp691
I5
ag124
aaa(lp692
g101
ag654
ag655
ag656
ag675
ag676
a(lp693
I11
ag46
aa(lp694
I10
ag48
aa(lp695
I15
ag203
aa(lp696
I19
ag261
aa(lp697
I18
ag19
aa(lp698
I17
ag21
aa(lp699
I13
ag23
aa(lp700
I9
ag25
aa(lp701
I5
ag124
aaa(lp702
g101
ag654
ag655
ag656
ag675
ag676
ag693
ag694
ag695
ag696
a(lp703
I18
ag77
aa(lp704
I14
ag238
aa(lp705
I13
ag65
aa(lp706
I9
ag25
aa(lp707
I5
ag124
aaa(lp708
g101
ag654
ag655
ag656
ag675
a(lp709
I7
ag453
aa(lp710
I8
ag72
aa(lp711
I12
ag13
aa(lp712
I20
ag15
aa(lp713
I19
ag17
aa(lp714
I18
ag19
aa(lp715
I17
ag21
aa(lp716
I13
ag23
aa(lp717
I9
ag25
aa(lp718
I5
ag124
aaa(lp719
g101
ag654
ag655
ag656
ag675
ag709
ag710
ag711
ag712
ag713
a(lp720
I18
ag77
aa(lp721
I14
ag238
aa(lp722
I13
ag65
aa(lp723
I9
ag25
aa(lp724
I5
ag124
aaa(lp725
g182
ag183
ag184
ag185
ag186
ag187
ag188
ag189
ag388
ag390
ag391
ag392
ag393
ag394
a(lp726
I16
ag353
aaa(lp727
g182
ag183
ag184
ag404
ag405
ag406
ag407
ag408
ag409
ag410
ag411
ag412
ag413
ag414
a(lp728
I16
ag353
aaa(lp729
g207
ag209
ag210
ag211
ag212
ag213
a(lp730
I6
ag389
aa(lp731
I1
ag111
aa(lp732
I2
ag5
aa(lp733
I3
ag7
aa(lp734
I4
ag9
aa(lp735
I8
ag11
aa(lp736
I12
ag13
aa(lp737
I20
ag15
aa(lp738
I19
ag358
aaa(lp739
g207
ag209
ag210
ag211
ag212
ag213
ag730
ag731
ag732
a(lp740
I3
ag56
aa(lp741
I7
ag58
aa(lp742
I11
ag46
aa(lp743
I10
ag48
aa(lp744
I15
ag203
aa(lp745
I19
ag205
aaa(lp746
g207
ag209
ag210
ag211
ag212
ag213
ag730
ag731
ag732
ag740
a(lp747
I7
ag453
aa(lp748
I8
ag72
aa(lp749
I12
ag13
aa(lp750
I20
ag15
aa(lp751
I19
ag358
aaa(lp752
g207
a(lp753
I15
ag230
aa(lp754
I19
ag261
aa(lp755
I18
ag19
aa(lp756
I17
ag21
aa(lp757
I13
ag23
aa(lp758
I9
ag25
aa(lp759
I5
ag27
aa(lp760
I6
ag389
aa(lp761
I1
ag111
aa(lp762
I2
ag5
aa(lp763
I3
ag56
aa(lp764
I7
ag58
aa(lp765
I11
ag33
aa(lp766
I16
ag353
aaa(lp767
g207
ag753
ag754
a(lp768
I18
ag77
aa(lp769
I14
ag238
aa(lp770
I13
ag65
aa(lp771
I9
ag25
aa(lp772
I5
ag27
aa(lp773
I6
ag389
aa(lp774
I1
ag111
aa(lp775
I2
ag5
aa(lp776
I3
ag56
aa(lp777
I7
ag58
aa(lp778
I11
ag33
aa(lp779
I16
ag353
aaa(lp780
g145
ag147
ag148
ag149
ag150
ag151
ag152
ag153
ag154
ag155
ag156
ag157
ag158
ag159
a(lp781
I1
ag43
aaa(lp782
g145
ag147
ag148
ag149
ag150
ag151
ag152
ag153
ag154
ag169
ag170
ag171
ag172
ag173
a(lp783
I1
ag43
aaa(lp784
g145
ag147
ag148
ag149
ag150
ag151
ag152
ag494
ag495
ag496
a(lp785
I3
ag7
aa(lp786
I4
ag9
aa(lp787
I8
ag11
aa(lp788
I12
ag13
aa(lp789
I20
ag167
aaa(lp790
g145
ag147
ag148
ag149
ag150
ag151
ag152
ag494
ag495
ag496
ag497
a(lp791
I7
ag453
aa(lp792
I8
ag72
aa(lp793
I12
ag13
aa(lp794
I20
ag167
aaa(lp795
g145
ag147
ag509
ag510
ag511
ag512
ag513
ag514
ag515
ag516
a(lp796
I3
ag7
aa(lp797
I4
ag9
aa(lp798
I8
ag11
aa(lp799
I12
ag13
aa(lp800
I20
ag167
aaa(lp801
g145
ag147
ag509
ag510
ag511
ag512
ag513
ag514
ag515
ag516
ag517
a(lp802
I7
ag453
aa(lp803
I8
ag72
aa(lp804
I12
ag13
aa(lp805
I20
ag167
aaa(lp806
g2
ag4
ag6
ag8
ag10
ag12
ag14
ag16
ag236
ag464
ag465
ag467
ag468
a(lp807
I16
ag353
aaa(lp808
g2
ag4
ag55
ag57
ag59
ag60
ag61
a(lp809
I14
ag39
aa(lp810
I6
ag466
aa(lp811
I7
ag70
aa(lp812
I8
ag72
aa(lp813
I12
ag13
aa(lp814
I20
ag15
aa(lp815
I19
ag358
aaa(lp816
g2
ag4
ag55
ag57
ag83
ag284
ag286
ag288
ag289
ag290
ag291
ag292
ag293
a(lp817
I19
ag358
aaa(lp818
g2
ag4
ag55
ag57
ag83
ag84
ag85
a(lp819
I14
ag39
aa(lp820
I6
ag466
aa(lp821
I7
ag70
aa(lp822
I8
ag72
aa(lp823
I12
ag13
aa(lp824
I20
ag15
aa(lp825
I19
ag358
aaa(lp826
g2
ag324
ag325
ag582
ag583
ag584
ag585
ag586
ag587
ag588
ag589
a(lp827
I7
ag31
aa(lp828
I11
ag33
aa(lp829
I16
ag353
aaa(lp830
g2
ag324
ag325
ag582
ag583
ag595
ag596
ag597
ag598
ag599
ag600
a(lp831
I7
ag31
aa(lp832
I11
ag33
aa(lp833
I16
ag353
aaa(lp834
g2
ag324
ag325
ag326
ag327
ag328
ag329
ag330
ag331
ag332
ag333
ag334
ag335
a(lp835
I19
ag358
aaa(lp836
g182
ag183
ag184
ag185
ag186
ag187
ag188
ag189
ag190
ag191
ag192
ag193
a(lp837
I15
ag230
aa(lp838
I19
ag205
aaa(lp839
g182
ag183
ag184
ag185
ag186
ag187
ag188
ag189
ag190
ag191
a(lp840
I11
ag46
aa(lp841
I10
ag48
aa(lp842
I15
ag203
aa(lp843
I19
ag205
aaa(lp844
g182
ag183
ag184
ag185
ag186
ag187
ag188
ag189
ag388
ag390
a(lp845
I2
ag199
aa(lp846
I10
ag201
aa(lp847
I15
ag203
aa(lp848
I19
ag205
aaa(lp849
g182
ag183
ag184
ag404
a(lp850
I14
ag79
aa(lp851
I6
ag41
aa(lp852
I1
ag111
aa(lp853
I2
ag5
aa(lp854
I3
ag56
aa(lp855
I7
ag58
aa(lp856
I11
ag33
aa(lp857
I16
ag35
aa(lp858
I15
ag230
aa(lp859
I19
ag205
aaa(lp860
g182
ag183
ag184
ag404
ag850
ag851
ag852
ag853
ag854
ag855
a(lp861
I11
ag46
aa(lp862
I10
ag285
aa(lp863
I9
ag287
aa(lp864
I5
ag124
aaa(lp865
g182
ag183
ag184
ag404
ag850
ag851
ag852
ag853
ag854
ag855
ag861
a(lp866
I10
ag48
aa(lp867
I15
ag203
aa(lp868
I19
ag205
aaa(lp869
g182
ag183
ag184
ag404
ag405
ag406
ag407
ag408
a(lp870
I6
ag29
aa(lp871
I7
ag31
aa(lp872
I11
ag33
aa(lp873
I16
ag35
aa(lp874
I15
ag230
aa(lp875
I19
ag205
aaa(lp876
g182
ag183
ag184
ag404
ag405
ag406
ag407
ag408
ag870
ag871
a(lp877
I11
ag46
aa(lp878
I10
ag48
aa(lp879
I15
ag203
aa(lp880
I19
ag205
aaa(lp881
g182
ag183
ag184
ag404
ag405
ag406
ag407
ag408
ag409
ag410
a(lp882
I2
ag199
aa(lp883
I10
ag201
aa(lp884
I15
ag203
aa(lp885
I19
ag205
aaa(lp886
g207
ag209
ag424
ag425
ag426
a(lp887
I2
ag199
aa(lp888
I10
ag201
aa(lp889
I15
ag203
aa(lp890
I19
ag261
aa(lp891
I18
ag19
aa(lp892
I17
ag21
aa(lp893
I13
ag23
aa(lp894
I9
ag25
aa(lp895
I5
ag124
aaa(lp896
g207
ag209
ag424
a(lp897
I6
ag466
aa(lp898
I7
ag70
aa(lp899
I8
ag72
aa(lp900
I12
ag13
aa(lp901
I20
ag15
aa(lp902
I19
ag17
aa(lp903
I18
ag19
aa(lp904
I17
ag21
aa(lp905
I13
ag23
aa(lp906
I9
ag25
aa(lp907
I5
ag124
aaa(lp908
g207
ag209
ag424
ag897
a(lp909
I7
ag31
aa(lp910
I11
ag46
aa(lp911
I10
ag48
aa(lp912
I15
ag203
aa(lp913
I19
ag261
aa(lp914
I18
ag19
aa(lp915
I17
ag21
aa(lp916
I13
ag23
aa(lp917
I9
ag25
aa(lp918
I5
ag124
aaa(lp919
g207
ag753
ag754
ag768
a(lp920
I14
ag79
aa(lp921
I6
ag41
aa(lp922
I1
ag111
aa(lp923
I2
ag5
aa(lp924
I3
ag56
aa(lp925
I7
ag58
aa(lp926
I11
ag46
aa(lp927
I10
ag285
aa(lp928
I9
ag287
aa(lp929
I5
ag124
aaa(lp930
g2
ag4
ag55
ag57
ag59
ag60
ag61
ag62
ag64
ag66
ag67
a(lp931
I6
ag389
aa(lp932
I1
ag43
aaa(lp933
g2
ag4
ag55
ag57
ag59
ag60
ag61
ag809
ag810
ag811
ag812
ag813
a(lp934
I20
ag167
aaa(lp935
g2
ag4
ag55
ag57
ag83
ag284
ag286
ag288
ag289
ag290
ag291
ag292
a(lp936
I20
ag167
aaa(lp937
g2
ag4
ag55
ag57
ag83
ag84
ag85
ag86
ag87
ag88
ag89
a(lp938
I6
ag389
aa(lp939
I1
ag43
aaa(lp940
g2
ag4
ag55
ag57
ag83
ag84
ag85
ag819
ag820
ag821
ag822
ag823
a(lp941
I20
ag167
aaa(lp942
g2
ag324
ag325
ag326
ag327
ag328
ag329
ag330
ag331
ag332
ag333
ag334
a(lp943
I20
ag167
aaa(lp944
g2
ag324
ag606
ag608
ag609
ag610
ag621
ag622
ag623
a(lp945
I15
ag37
aa(lp946
I14
ag39
aa(lp947
I6
ag41
aa(lp948
I1
ag43
aaa(lp949
g101
ag103
ag104
ag105
ag106
ag107
ag108
ag109
ag110
ag342
a(lp950
I10
ag607
aa(lp951
I9
ag287
aa(lp952
I5
ag124
aaa(lp953
g101
ag654
ag655
ag656
ag675
ag676
ag677
ag678
a(lp954
I15
ag37
aa(lp955
I14
ag63
aa(lp956
I13
ag65
aa(lp957
I9
ag25
aa(lp958
I5
ag124
aaa(lp959
g101
ag654
ag655
ag656
ag675
ag676
ag693
ag694
a(lp960
I15
ag50
aa(lp961
I14
ag63
aa(lp962
I13
ag65
aa(lp963
I9
ag25
aa(lp964
I5
ag124
aaa(lp965
g207
ag209
ag210
ag211
ag212
ag213
ag730
ag731
ag732
ag740
ag741
a(lp966
I11
ag33
aa(lp967
I16
ag353
aaa(lp968
g145
ag147
ag148
ag149
ag150
ag151
ag152
ag153
ag154
ag155
ag156
a(lp969
I15
ag230
aa(lp970
I19
ag205
aaa(lp971
g145
ag147
ag148
ag149
ag150
ag151
ag152
ag153
ag154
ag169
ag170
a(lp972
I15
ag203
aa(lp973
I19
ag205
aaa(lp974
g145
ag147
ag148
ag149
ag150
ag151
ag152
ag494
ag495
a(lp975
I2
ag199
aa(lp976
I10
ag201
aa(lp977
I15
ag203
aa(lp978
I19
ag205
aaa(lp979
g145
ag147
ag509
a(lp980
I14
ag79
aa(lp981
I6
ag41
aa(lp982
I1
ag111
aa(lp983
I2
ag5
aa(lp984
I3
ag56
aa(lp985
I7
ag58
aa(lp986
I11
ag33
aa(lp987
I16
ag35
aa(lp988
I15
ag230
aa(lp989
I19
ag205
aaa(lp990
g145
ag147
ag509
ag980
ag981
ag982
ag983
ag984
ag985
a(lp991
I11
ag46
aa(lp992
I10
ag285
aa(lp993
I9
ag287
aa(lp994
I5
ag124
aaa(lp995
g145
ag147
ag509
ag980
ag981
ag982
ag983
ag984
ag985
ag991
a(lp996
I10
ag48
aa(lp997
I15
ag203
aa(lp998
I19
ag205
aaa(lp999
g145
ag147
ag509
ag510
ag511
ag512
ag513
a(lp1000
I6
ag29
aa(lp1001
I7
ag31
aa(lp1002
I11
ag33
aa(lp1003
I16
ag35
aa(lp1004
I15
ag230
aa(lp1005
I19
ag205
aaa(lp1006
g145
ag147
ag509
ag510
ag511
ag512
ag513
ag1000
ag1001
a(lp1007
I11
ag46
aa(lp1008
I10
ag48
aa(lp1009
I15
ag203
aa(lp1010
I19
ag205
aaa(lp1011
g145
ag147
ag509
ag510
ag511
ag512
ag513
ag514
ag515
a(lp1012
I2
ag199
aa(lp1013
I10
ag201
aa(lp1014
I15
ag203
aa(lp1015
I19
ag205
aaa(lp1016
g2
ag4
ag6
ag8
ag10
ag12
ag14
ag16
ag236
ag464
a(lp1017
I6
ag41
aa(lp1018
I1
ag43
aaa(lp1019
g2
ag4
ag55
ag57
ag59
ag60
ag259
ag260
ag273
ag538
a(lp1020
I6
ag41
aa(lp1021
I1
ag43
aaa(lp1022
g2
ag4
ag55
ag57
ag83
ag84
ag300
ag301
ag313
ag551
a(lp1023
I6
ag41
aa(lp1024
I1
ag43
aaa(lp1025
g2
ag4
ag55
ag561
ag562
ag563
ag564
ag565
ag574
a(lp1026
I14
ag79
aa(lp1027
I6
ag41
aa(lp1028
I1
ag43
aaa(lp1029
g2
ag324
ag325
ag582
ag583
ag584
ag585
ag586
ag587
ag588
a(lp1030
I6
ag389
aa(lp1031
I1
ag43
aaa(lp1032
g2
ag324
ag325
ag582
ag583
ag595
a(lp1033
I14
ag79
aa(lp1034
I6
ag466
aa(lp1035
I7
ag70
aa(lp1036
I8
ag72
aa(lp1037
I12
ag13
aa(lp1038
I20
ag167
aaa(lp1039
g2
ag324
ag325
ag582
ag583
ag595
ag596
ag597
ag598
ag599
a(lp1040
I6
ag389
aa(lp1041
I1
ag43
aaa(lp1042
g2
ag324
ag325
ag326
ag327
ag328
ag329
ag330
ag331
a(lp1043
I7
ag31
aa(lp1044
I11
ag33
aa(lp1045
I16
ag353
aaa(lp1046
g101
ag103
ag631
ag632
ag633
ag634
ag635
a(lp1047
I18
ag19
aa(lp1048
I17
ag21
aa(lp1049
I13
ag23
aa(lp1050
I9
ag25
aa(lp1051
I5
ag124
aaa(lp1052
g101
ag103
ag631
ag632
ag633
ag634
ag635
ag636
a(lp1053
I14
ag238
aa(lp1054
I13
ag65
aa(lp1055
I9
ag25
aa(lp1056
I5
ag124
aaa(lp1057
g101
ag103
ag104
ag105
ag106
ag362
ag363
a(lp1058
I18
ag19
aa(lp1059
I17
ag21
aa(lp1060
I13
ag23
aa(lp1061
I9
ag25
aa(lp1062
I5
ag124
aaa(lp1063
g101
ag103
ag104
ag105
ag106
ag362
ag363
ag364
a(lp1064
I14
ag238
aa(lp1065
I13
ag65
aa(lp1066
I9
ag25
aa(lp1067
I5
ag124
aaa(lp1068
g101
ag103
ag104
ag126
ag127
ag375
ag376
a(lp1069
I18
ag19
aa(lp1070
I17
ag21
aa(lp1071
I13
ag23
aa(lp1072
I9
ag25
aa(lp1073
I5
ag124
aaa(lp1074
g101
ag103
ag104
ag126
ag127
ag375
ag376
ag377
a(lp1075
I14
ag238
aa(lp1076
I13
ag65
aa(lp1077
I9
ag25
aa(lp1078
I5
ag124
aaa(lp1079
g101
ag654
ag655
a(lp1080
I2
ag199
aa(lp1081
I10
ag201
aa(lp1082
I15
ag203
aa(lp1083
I19
ag261
aa(lp1084
I18
ag19
aa(lp1085
I17
ag21
aa(lp1086
I13
ag23
aa(lp1087
I9
ag25
aa(lp1088
I5
ag124
aaa(lp1089
g101
ag654
ag655
ag1080
ag1081
ag1082
ag1083
a(lp1090
I18
ag77
aa(lp1091
I14
ag238
aa(lp1092
I13
ag65
aa(lp1093
I9
ag25
aa(lp1094
I5
ag124
aaa(lp1095
g182
ag183
ag184
ag185
ag186
ag187
ag188
ag189
ag190
ag191
ag192
a(lp1096
I16
ag353
aaa(lp1097
g182
ag183
ag184
ag404
ag850
ag851
ag852
ag853
ag854
ag855
ag856
a(lp1098
I16
ag353
aaa(lp1099
g182
ag183
ag184
ag404
ag405
ag406
ag407
ag408
ag870
ag871
ag872
a(lp1100
I16
ag353
aaa(lp1101
g207
ag209
ag210
ag211
ag212
ag213
ag214
ag215
ag216
ag217
ag218
a(lp1102
I19
ag358
aaa(lp1103
g207
ag209
ag210
ag211
ag212
ag213
ag214
ag484
ag485
ag486
ag487
a(lp1104
I19
ag205
aaa(lp1105
g207
ag209
ag210
ag211
ag212
ag213
ag730
ag731
a(lp1106
I2
ag199
aa(lp1107
I10
ag201
aa(lp1108
I15
ag203
aa(lp1109
I19
ag205
aaa(lp1110
g207
ag209
ag424
ag425
ag426
ag427
ag428
ag429
ag430
ag431
ag432
a(lp1111
I19
ag358
aaa(lp1112
g207
ag209
ag424
ag425
ag426
ag427
ag440
ag441
ag442
a(lp1113
I10
ag285
aa(lp1114
I9
ag287
aa(lp1115
I5
ag124
aaa(lp1116
g207
ag209
ag424
ag425
ag426
ag427
ag440
ag441
ag442
ag443
ag444
a(lp1117
I19
ag205
aaa(lp1118
g207
ag209
ag424
ag425
ag426
ag427
ag440
ag452
ag454
ag455
ag456
a(lp1119
I19
ag358
aaa(lp1120
g207
ag753
ag754
ag755
ag756
ag757
ag758
ag759
a(lp1121
I6
ag29
aa(lp1122
I7
ag31
aa(lp1123
I11
ag33
aa(lp1124
I16
ag353
aaa(lp1125
g207
ag753
ag754
ag768
ag920
ag921
ag922
ag923
ag924
ag925
a(lp1126
I11
ag33
aa(lp1127
I16
ag353
aaa(lp1128
g207
ag753
ag754
ag768
ag769
ag770
ag771
ag772
a(lp1129
I6
ag29
aa(lp1130
I7
ag31
aa(lp1131
I11
ag33
aa(lp1132
I16
ag353
aaa(lp1133
g145
ag147
ag148
ag149
ag150
ag151
ag152
ag153
a(lp1134
I7
ag70
aa(lp1135
I8
ag72
aa(lp1136
I12
ag13
aa(lp1137
I20
ag167
aaa(lp1138
g145
ag147
ag509
ag980
ag981
ag982
ag983
a(lp1139
I3
ag7
aa(lp1140
I4
ag9
aa(lp1141
I8
ag11
aa(lp1142
I12
ag13
aa(lp1143
I20
ag167
aaa(lp1144
g145
ag147
ag509
ag980
ag981
ag982
ag983
ag984
a(lp1145
I7
ag453
aa(lp1146
I8
ag72
aa(lp1147
I12
ag13
aa(lp1148
I20
ag167
aaa(lp1149
g145
ag147
ag509
ag510
ag511
ag512
ag513
ag1000
a(lp1150
I7
ag70
aa(lp1151
I8
ag72
aa(lp1152
I12
ag13
aa(lp1153
I20
ag167
aaa(lp1154
g2
ag324
ag325
ag582
ag583
ag595
ag1033
ag1034
a(lp1155
I7
ag31
aa(lp1156
I11
ag33
aa(lp1157
I16
ag353
aaa(lp1158
g2
ag324
ag325
ag326
a(lp1159
I14
ag39
aa(lp1160
I6
ag466
aa(lp1161
I7
ag70
aa(lp1162
I8
ag72
aa(lp1163
I12
ag13
aa(lp1164
I20
ag15
aa(lp1165
I19
ag358
aaa(lp1166
g2
ag324
ag606
ag608
ag609
ag610
ag611
ag612
ag613
ag614
a(lp1167
I19
ag358
aaa(lp1168
g2
ag324
ag606
ag608
ag609
ag610
ag621
ag622
ag623
ag624
a(lp1169
I19
ag205
aaa(lp1170
g101
ag103
ag631
ag632
ag633
ag634
ag635
ag636
ag637
ag638
a(lp1171
I1
ag43
aaa(lp1172
g101
ag103
ag104
ag105
ag106
ag362
ag363
ag364
ag365
ag366
a(lp1173
I1
ag43
aaa(lp1174
g101
ag103
ag104
ag126
ag127
ag375
ag376
ag377
ag378
ag379
a(lp1175
I1
ag43
aaa(lp1176
g182
ag183
ag184
ag404
ag850
ag851
ag852
a(lp1177
I2
ag199
aa(lp1178
I10
ag201
aa(lp1179
I15
ag203
aa(lp1180
I19
ag205
aaa(lp1181
g182
ag183
ag184
ag404
ag850
ag851
ag852
ag1177
a(lp1182
I10
ag607
aa(lp1183
I9
ag287
aa(lp1184
I5
ag124
aaa(lp1185
g182
ag183
ag184
ag404
ag850
a(lp1186
I6
ag466
aa(lp1187
I7
ag31
aa(lp1188
I11
ag33
aa(lp1189
I16
ag35
aa(lp1190
I15
ag230
aa(lp1191
I19
ag205
aaa(lp1192
g182
ag183
ag184
ag404
ag850
ag1186
ag1187
a(lp1193
I11
ag46
aa(lp1194
I10
ag285
aa(lp1195
I9
ag287
aa(lp1196
I5
ag124
aaa(lp1197
g182
ag183
ag184
ag404
ag850
ag1186
ag1187
ag1193
a(lp1198
I10
ag48
aa(lp1199
I15
ag203
aa(lp1200
I19
ag205
aaa(lp1201
g207
ag753
ag754
ag768
ag920
ag921
ag922
a(lp1202
I2
ag199
aa(lp1203
I10
ag607
aa(lp1204
I9
ag287
aa(lp1205
I5
ag124
aaa(lp1206
g207
ag753
ag754
ag768
ag920
a(lp1207
I6
ag466
aa(lp1208
I7
ag31
aa(lp1209
I11
ag46
aa(lp1210
I10
ag285
aa(lp1211
I9
ag287
aa(lp1212
I5
ag124
aaa(lp1213
g2
ag4
ag55
ag57
ag59
ag60
ag61
ag809
a(lp1214
I6
ag41
aa(lp1215
I1
ag43
aaa(lp1216
g2
ag4
ag55
ag57
ag83
ag284
ag286
ag288
a(lp1217
I6
ag389
aa(lp1218
I1
ag43
aaa(lp1219
g2
ag4
ag55
ag57
ag83
ag84
ag85
ag819
a(lp1220
I6
ag41
aa(lp1221
I1
ag43
aaa(lp1222
g2
ag324
ag325
ag326
ag327
ag328
ag329
ag330
a(lp1223
I6
ag389
aa(lp1224
I1
ag43
aaa(lp1225
g2
ag324
ag325
ag326
ag1159
ag1160
ag1161
ag1162
ag1163
a(lp1226
I20
ag167
aaa(lp1227
g2
ag324
ag606
ag608
ag609
ag610
ag611
ag612
ag613
a(lp1228
I20
ag167
aaa(lp1229
g101
ag103
ag104
ag105
ag106
ag107
a(lp1230
I14
ag63
aa(lp1231
I13
ag65
aa(lp1232
I9
ag25
aa(lp1233
I5
ag124
aaa(lp1234
g101
ag103
ag104
ag126
ag127
ag128
a(lp1235
I14
ag63
aa(lp1236
I13
ag65
aa(lp1237
I9
ag25
aa(lp1238
I5
ag124
aaa(lp1239
g101
ag654
ag655
ag656
ag675
ag676
ag693
a(lp1240
I10
ag285
aa(lp1241
I9
ag287
aa(lp1242
I5
ag124
aaa(lp1243
g101
ag654
ag655
ag1080
ag1081
a(lp1244
I15
ag50
aa(lp1245
I14
ag63
aa(lp1246
I13
ag65
aa(lp1247
I9
ag25
aa(lp1248
I5
ag124
aaa(lp1249
g207
ag209
ag210
ag211
ag212
ag213
ag214
ag484
a(lp1250
I11
ag33
aa(lp1251
I16
ag353
aaa(lp1252
g207
ag209
ag424
ag425
ag426
ag427
ag440
ag441
a(lp1253
I11
ag33
aa(lp1254
I16
ag353
aaa(lp1255
g207
ag753
ag754
ag755
ag756
ag757
ag758
ag759
ag760
a(lp1256
I1
ag43
aaa(lp1257
g207
ag753
ag754
ag768
ag769
ag770
ag771
ag772
ag773
a(lp1258
I1
ag43
aaa(lp1259
g145
ag147
ag509
ag980
ag981
ag982
a(lp1260
I2
ag199
aa(lp1261
I10
ag201
aa(lp1262
I15
ag203
aa(lp1263
I19
ag205
aaa(lp1264
g145
ag147
ag509
ag980
ag981
ag982
ag1260
a(lp1265
I10
ag607
aa(lp1266
I9
ag287
aa(lp1267
I5
ag124
aaa(lp1268
g145
ag147
ag509
ag980
a(lp1269
I6
ag466
aa(lp1270
I7
ag31
aa(lp1271
I11
ag33
aa(lp1272
I16
ag35
aa(lp1273
I15
ag230
aa(lp1274
I19
ag205
aaa(lp1275
g145
ag147
ag509
ag980
ag1269
ag1270
a(lp1276
I11
ag46
aa(lp1277
I10
ag285
aa(lp1278
I9
ag287
aa(lp1279
I5
ag124
aaa(lp1280
g145
ag147
ag509
ag980
ag1269
ag1270
ag1276
a(lp1281
I10
ag48
aa(lp1282
I15
ag203
aa(lp1283
I19
ag205
aaa(lp1284
g2
ag324
ag325
ag582
ag583
ag595
ag1033
a(lp1285
I6
ag41
aa(lp1286
I1
ag43
aaa(lp1287
g2
ag324
ag325
ag326
ag1159
ag1160
a(lp1288
I7
ag31
aa(lp1289
I11
ag33
aa(lp1290
I16
ag353
aaa(lp1291
g2
ag324
ag606
ag608
ag609
ag610
ag621
ag622
a(lp1292
I16
ag353
aaa(lp1293
g101
ag103
ag104
ag105
ag106
ag107
ag108
ag109
a(lp1294
I1
ag43
aaa(lp1295
g101
ag103
ag104
ag126
ag127
ag128
ag129
ag130
a(lp1296
I1
ag43
aaa(lp1297
g101
ag654
ag655
ag656
ag657
ag658
ag659
ag660
a(lp1298
I20
ag167
aaa(lp1299
g101
ag654
ag655
ag656
ag675
ag709
ag710
ag711
a(lp1300
I20
ag167
aaa(lp1301
g182
ag183
ag184
ag404
ag850
ag1186
ag1187
ag1188
a(lp1302
I16
ag353
aaa(lp1303
g207
ag209
ag424
ag425
ag426
ag887
ag888
ag889
a(lp1304
I19
ag205
aaa(lp1305
g207
ag209
ag424
ag425
ag426
ag887
a(lp1306
I10
ag607
aa(lp1307
I9
ag287
aa(lp1308
I5
ag124
aaa(lp1309
g207
ag209
ag424
ag897
ag898
ag899
ag900
ag901
a(lp1310
I19
ag358
aaa(lp1311
g207
ag209
ag424
ag897
ag909
ag910
a(lp1312
I10
ag285
aa(lp1313
I9
ag287
aa(lp1314
I5
ag124
aaa(lp1315
g207
ag209
ag424
ag897
ag909
ag910
ag911
ag912
a(lp1316
I19
ag205
aaa(lp1317
g207
ag753
ag754
ag768
ag920
ag1207
ag1208
a(lp1318
I11
ag33
aa(lp1319
I16
ag353
aaa(lp1320
g145
ag147
ag148
ag149
ag150
ag151
ag152
ag494
a(lp1321
I1
ag43
aaa(lp1322
g145
ag147
ag509
ag980
ag1269
a(lp1323
I7
ag70
aa(lp1324
I8
ag72
aa(lp1325
I12
ag13
aa(lp1326
I20
ag167
aaa(lp1327
g145
ag147
ag509
ag510
ag511
ag512
ag513
ag514
a(lp1328
I1
ag43
aaa(lp1329
g2
ag4
ag6
ag8
ag10
ag12
ag14
a(lp1330
I19
ag358
aaa(lp1331
g2
ag4
ag55
ag57
ag59
ag60
ag259
a(lp1332
I19
ag205
aaa(lp1333
g2
ag4
ag55
ag57
ag83
ag84
ag300
a(lp1334
I19
ag205
aaa(lp1335
g2
ag4
ag55
ag561
ag562
ag563
ag564
a(lp1336
I19
ag358
aaa(lp1337
g101
ag654
ag655
ag656
ag675
ag676
ag677
a(lp1338
I16
ag353
aaa(lp1339
g182
ag183
ag184
ag185
ag186
ag187
ag188
a(lp1340
I5
ag124
aaa(lp1341
g182
ag183
ag184
ag404
ag405
ag406
ag407
a(lp1342
I5
ag124
aaa(lp1343
g207
ag209
ag210
ag211
ag212
ag213
ag730
a(lp1344
I1
ag43
aaa(lp1345
g207
ag753
ag754
ag755
ag756
ag757
ag758
a(lp1346
I5
ag124
aaa(lp1347
g207
ag753
ag754
ag768
ag769
ag770
ag771
a(lp1348
I5
ag124
aaa(lp1349
g2
ag4
ag6
ag8
ag10
ag12
a(lp1350
I20
ag167
aaa(lp1351
g2
ag4
ag55
ag561
ag562
ag563
a(lp1352
I20
ag167
aaa(lp1353
g2
ag324
ag325
ag326
ag1159
a(lp1354
I6
ag41
aa(lp1355
I1
ag43
aaa(lp1356
g2
ag324
ag606
ag608
ag609
a(lp1357
I6
ag389
aa(lp1358
I1
ag43
aaa(lp1359
g101
ag103
ag104
ag126
a(lp1360
I10
ag285
aa(lp1361
I9
ag287
aa(lp1362
I5
ag124
aaa(lp1363
g101
ag654
ag655
ag1080
a(lp1364
I10
ag607
aa(lp1365
I9
ag287
aa(lp1366
I5
ag124
aaa(lp1367
g207
ag209
ag424
ag897
ag909
a(lp1368
I11
ag33
aa(lp1369
I16
ag353
aaa(lp1370
g207
ag753
ag754
ag768
ag920
ag921
a(lp1371
I1
ag43
aaa(lp1372
g145
ag147
ag148
ag149
ag150
ag151
a(lp1373
I5
ag124
aaa(lp1374
g145
ag147
ag509
ag510
ag511
ag512
a(lp1375
I5
ag124
aaa(lp1376
g2
ag4
ag55
ag57
ag59
a(lp1377
I16
ag353
aaa(lp1378
g101
ag103
ag631
ag632
ag633
a(lp1379
I20
ag167
aaa(lp1380
g207
ag209
ag210
ag211
ag212
a(lp1381
I5
ag124
aaa(lp1382
g145
ag147
ag509
ag980
ag981
a(lp1383
I1
ag43
aaa(lp1384
g2
ag324
ag325
ag582
a(lp1385
I19
ag205
aaa(lp1386
g101
ag103
ag104
ag105
a(lp1387
I16
ag353
aaa(lp1388
g207
ag209
ag424
ag425
a(lp1389
I1
ag43
aaa(lp1390
g101
ag654
a(lp1391
I1
ag43
aaa(lp1392
g182
ag183
a(lp1393
I19
ag358
aaa(lp1394
g207
ag753
a(lp1395
I19
ag205
aaa(lp1396
g182
a(lp1397
I20
ag167
aaa(lp1398
g145
a(lp1399
I19
ag358
aaa(lp1400
(lp1401
I1
aS'on'
p1402
aaa(lp1403
(lp1404
I5
aS'on'
p1405
aaa(lp1406
(lp1407
I16
aS'on'
p1408
aaa(lp1409
(lp1410
I20
aS'on'
p1411
aaa.