(lp0
(lp1
I1
aI4
aI0
aI2
aI5
aI1
aI1
aa(lp2
I0
aI4
aI0
aI1
aI5
aI1
aI1
aa(lp3
I1
aI2
aI0
aI3
aI4
aI0
aI1
aa(lp4
I2
aI2
aI0
aI3
aI4
aI1
aI0
aa(lp5
I2
aI2
aI0
aI4
aI2
aI0
aI2
aa(lp6
I3
aI2
aI0
aI3
aI4
aI0
aI1
aa(lp7
I4
aI2
aI0
aI4
aI2
aI0
aI2
aa(lp8
I0
aI0
aI0
aI3
aI3
aI0
aI1
aa(lp9
I1
aI2
aI0
aI2
aI4
aI1
aI0
aa(lp10
I3
aI0
aI0
aI3
aI3
aI0
aI1
aa(lp11
I1
aI0
aI0
aI1
aI4
aI0
aI1
aa(lp12
I1
aI2
aI0
aI1
aI4
aI1
aI0
aa(lp13
I1
aI2
aI0
aI2
aI3
aI0
aI1
aa(lp14
I2
aI0
aI0
aI2
aI2
aI0
aI2
aa(lp15
I2
aI0
aI0
aI3
aI3
aI0
aI0
aa(lp16
I0
aI2
aI0
aI1
aI3
aI0
aI1
aa(lp17
I2
aI0
aI0
aI1
aI4
aI0
aI0
aa(lp18
I2
aI2
aI0
aI1
aI3
aI0
aI1
aa(lp19
I1
aI0
aI0
aI0
aI3
aI0
aI1
aa(lp20
I1
aI0
aI0
aI0
aI4
aI0
aI0
aa(lp21
I1
aI0
aI0
aI1
aI3
aI0
aI0
aa(lp22
I1
aI2
aI0
aI1
aI2
aI0
aI1
aa(lp23
I2
aI0
aI0
aI0
aI4
aI0
aI0
aa(lp24
I2
aI2
aI0
aI0
aI2
aI0
aI2
aa(lp25
I2
aI2
aI0
aI0
aI3
aI0
aI1
aa(lp26
I3
aI0
aI0
aI1
aI2
aI0
aI1
aa(lp27
I3
aI2
aI0
aI1
aI2
aI0
aI1
aa(lp28
I4
aI2
aI0
aI2
aI0
aI0
aI2
aa(lp29
I0
aI0
aI0
aI1
aI1
aI0
aI1
aa(lp30
I1
aI0
aI0
aI1
aI2
aI0
aI0
aa(lp31
I3
aI0
aI0
aI1
aI1
aI0
aI1
aa(lp32
I2
aI0
aI0
aI1
aI1
aI0
aI0
aa(lp33
I0
aI0
aI1
aI1
aI0
aI0
aI0
aa(lp34
I0
aI1
aI1
aI1
aI0
aI0
aI0
aa(lp35
I2
aI1
aI1
aI1
aI0
aI0
aI0
aa(lp36
I4
aI0
aI0
aI0
aI0
aI1
aI0
aa(lp37
I4
aI1
aI1
aI1
aI0
aI0
aI0
aa.