(lp0
F0.9999998700000072
aF0.9999998800000061
aF0.9999998800000061
aF0.9999998800000061
aF0.9999998800000061
aF0.9999998800000061
aF0.9999998800000061
aF0.999999890000005
aF0.999999890000005
aF0.999999890000005
aF0.999999890000005
aF0.999999890000005
aF0.999999890000005
aF0.999999890000005
aF0.999999890000005
aF0.999999890000005
aF0.999999890000005
aF0.999999890000005
aF0.999999890000005
aF0.999999890000005
aF0.999999900000004
aF0.999999900000004
aF0.999999900000004
aF0.999999900000004
aF0.999999900000004
aF0.999999900000004
aF0.999999900000004
aF0.999999900000004
aF0.999999900000004
aF0.999999900000004
aF0.9999999100000032
aF0.9999999100000032
aF0.9999999100000032
aF0.9999999100000032
aF0.9999999100000032
aF0.9999999100000032
aF0.9999999100000032
aF0.9999999100000032
aF0.9999999100000032
aF0.9999999100000032
aF0.9999999100000032
aF0.9999999200000025
aF0.9999999200000025
aF0.9999999200000025
aF0.9999999200000025
aF0.9999999200000025
aF0.9999999200000025
aF0.9999999200000025
aF0.9999999200000025
aF0.9999999200000025
aF0.9999999200000025
aF0.9999999200000025
aF0.9999999200000025
aF0.9999999200000025
aF0.9999999200000025
aF0.9999999200000025
aF0.9999999200000025
aF0.9999999200000025
aF0.9999999200000025
aF0.9999999200000025
aF0.9999999200000025
aF0.9999999200000025
aF0.9999999200000025
aF0.9999999300000019
aF0.9999999300000019
aF0.9999999300000019
aF0.9999999300000019
aF0.9999999300000019
aF0.9999999300000019
aF0.9999999300000019
aF0.9999999300000019
aF0.9999999300000019
aF0.9999999300000019
aF0.9999999300000019
aF0.9999999300000019
aF0.9999999300000019
aF0.9999999300000019
aF0.9999999300000019
aF0.9999999300000019
aF0.9999999300000019
aF0.9999999300000019
aF0.9999999300000019
aF0.9999999400000014
aF0.9999999400000014
aF0.9999999400000014
aF0.9999999400000014
aF0.9999999400000014
aF0.9999999400000014
aF0.9999999400000014
aF0.9999999400000014
aF0.9999999500000009
aF0.9999999500000009
aF0.9999999500000009
aF0.9999999500000009
aF0.9999999500000009
aF0.9999999500000009
aF0.9999999500000009
aF0.9999999500000009
aF0.9999999500000009
aF0.9999999600000005
aF0.9999999600000005
aF0.9999999600000005
aF0.9999999600000005
aF0.9999999600000005
aF0.9999999600000005
aF0.9999999600000005
aF0.9999999600000005
aF0.9999999600000005
aF0.9999999600000005
aF0.9999999700000002
aF0.9999999700000002
aF0.9999999700000002
aF0.9999999700000002
aF0.99999999
aF0.99999999
aF0.99999999
a.