(lp0
(lp1
I0
aI4
aI0
aI5
aI4
aI2
aI2
aa(lp2
I0
aI0
aI0
aI3
aI6
aI1
aI2
aa(lp3
I0
aI2
aI0
aI3
aI6
aI1
aI2
aa(lp4
I0
aI2
aI0
aI4
aI5
aI1
aI2
aa(lp5
I1
aI4
aI0
aI4
aI5
aI1
aI2
aa(lp6
I1
aI6
aI0
aI4
aI5
aI2
aI1
aa(lp7
I1
aI8
aI0
aI5
aI3
aI3
aI1
aa(lp8
I0
aI0
aI0
aI3
aI6
aI0
aI2
aa(lp9
I0
aI0
aI0
aI3
aI6
aI0
aI2
aa(lp10
I0
aI2
aI0
aI4
aI5
aI0
aI2
aa(lp11
I0
aI4
aI0
aI5
aI4
aI2
aI0
aa(lp12
I0
aI4
aI0
aI5
aI4
aI2
aI0
aa(lp13
I0
aI4
aI0
aI6
aI2
aI1
aI2
aa(lp14
I0
aI4
aI0
aI6
aI2
aI1
aI2
aa(lp15
I1
aI2
aI0
aI2
aI7
aI1
aI1
aa(lp16
I1
aI2
aI0
aI4
aI5
aI0
aI2
aa(lp17
I1
aI4
aI0
aI3
aI5
aI2
aI1
aa(lp18
I1
aI4
aI0
aI4
aI5
aI1
aI1
aa(lp19
I1
aI6
aI0
aI3
aI4
aI2
aI2
aa(lp20
I1
aI6
aI0
aI5
aI3
aI2
aI1
aa(lp21
I0
aI0
aI0
aI3
aI6
aI1
aI0
aa(lp22
I0
aI0
aI0
aI3
aI6
aI1
aI0
aa(lp23
I0
aI2
aI0
aI3
aI6
aI1
aI0
aa(lp24
I0
aI2
aI0
aI3
aI6
aI1
aI0
aa(lp25
I0
aI2
aI0
aI4
aI4
aI0
aI2
aa(lp26
I0
aI2
aI0
aI4
aI4
aI0
aI2
aa(lp27
I1
aI2
aI0
aI1
aI6
aI1
aI2
aa(lp28
I1
aI2
aI0
aI4
aI5
aI0
aI1
aa(lp29
I1
aI4
aI0
aI3
aI4
aI1
aI2
aa(lp30
I1
aI4
aI0
aI5
aI3
aI1
aI1
aa(lp31
I0
aI0
aI0
aI3
aI6
aI0
aI0
aa(lp32
I0
aI0
aI0
aI3
aI6
aI0
aI0
aa(lp33
I0
aI2
aI0
aI3
aI4
aI1
aI1
aa(lp34
I0
aI4
aI0
aI5
aI1
aI1
aI2
aa(lp35
I0
aI4
aI0
aI5
aI1
aI2
aI1
aa(lp36
I1
aI2
aI0
aI3
aI4
aI0
aI2
aa(lp37
I1
aI4
aI0
aI3
aI4
aI1
aI1
aa(lp38
I2
aI4
aI0
aI3
aI4
aI2
aI0
aa(lp39
I2
aI6
aI0
aI2
aI4
aI2
aI1
aa(lp40
I2
aI6
aI0
aI2
aI4
aI3
aI0
aa(lp41
I2
aI8
aI0
aI1
aI4
aI3
aI1
aa(lp42
I0
aI0
aI0
aI3
aI3
aI0
aI2
aa(lp43
I0
aI2
aI0
aI3
aI2
aI1
aI2
aa(lp44
I0
aI2
aI0
aI3
aI2
aI1
aI2
aa(lp45
I0
aI2
aI0
aI3
aI3
aI0
aI2
aa(lp46
I0
aI2
aI0
aI3
aI3
aI1
aI1
aa(lp47
I0
aI2
aI0
aI3
aI4
aI0
aI1
aa(lp48
I0
aI4
aI0
aI4
aI1
aI1
aI2
aa(lp49
I0
aI4
aI0
aI4
aI1
aI1
aI2
aa(lp50
I1
aI0
aI0
aI3
aI3
aI0
aI2
aa(lp51
I1
aI2
aI0
aI3
aI4
aI0
aI1
aa(lp52
I1
aI4
aI0
aI3
aI3
aI2
aI0
aa(lp53
I1
aI4
aI0
aI3
aI3
aI2
aI0
aa(lp54
I1
aI4
aI0
aI4
aI1
aI1
aI2
aa(lp55
I1
aI4
aI0
aI4
aI1
aI1
aI2
aa(lp56
I2
aI0
aI0
aI3
aI4
aI1
aI0
aa(lp57
I2
aI2
aI0
aI2
aI4
aI1
aI1
aa(lp58
I2
aI2
aI0
aI2
aI4
aI2
aI0
aa(lp59
I2
aI2
aI0
aI3
aI4
aI1
aI0
aa(lp60
I2
aI4
aI0
aI1
aI4
aI2
aI1
aa(lp61
I2
aI4
aI0
aI2
aI4
aI1
aI1
aa(lp62
I2
aI4
aI0
aI2
aI4
aI2
aI0
aa(lp63
I2
aI6
aI0
aI1
aI4
aI2
aI1
aa(lp64
I0
aI0
aI0
aI1
aI4
aI0
aI2
aa(lp65
I0
aI0
aI0
aI1
aI4
aI0
aI2
aa(lp66
I0
aI2
aI0
aI2
aI3
aI0
aI2
aa(lp67
I0
aI2
aI0
aI3
aI3
aI0
aI1
aa(lp68
I0
aI2
aI0
aI3
aI3
aI0
aI1
aa(lp69
I0
aI2
aI0
aI4
aI1
aI0
aI2
aa(lp70
I0
aI4
aI0
aI3
aI2
aI2
aI0
aa(lp71
I0
aI4
aI0
aI4
aI1
aI0
aI2
aa(lp72
I0
aI4
aI0
aI4
aI1
aI1
aI1
aa(lp73
I1
aI0
aI0
aI1
aI5
aI1
aI0
aa(lp74
I1
aI0
aI0
aI3
aI3
aI1
aI0
aa(lp75
I1
aI2
aI0
aI1
aI5
aI1
aI0
aa(lp76
I1
aI2
aI0
aI2
aI3
aI0
aI2
aa(lp77
I1
aI2
aI0
aI3
aI3
aI1
aI0
aa(lp78
I1
aI2
aI0
aI4
aI1
aI0
aI2
aa(lp79
I2
aI0
aI0
aI5
aI2
aI0
aI0
aa(lp80
I2
aI2
aI0
aI4
aI2
aI0
aI1
aa(lp81
I2
aI2
aI0
aI4
aI2
aI1
aI0
aa(lp82
I2
aI4
aI0
aI3
aI2
aI1
aI1
aa(lp83
I0
aI0
aI0
aI1
aI4
aI1
aI0
aa(lp84
I0
aI2
aI0
aI1
aI4
aI1
aI0
aa(lp85
I0
aI2
aI0
aI2
aI2
aI0
aI2
aa(lp86
I0
aI2
aI0
aI2
aI2
aI0
aI2
aa(lp87
I1
aI0
aI0
aI3
aI3
aI0
aI0
aa(lp88
I1
aI0
aI0
aI3
aI3
aI0
aI0
aa(lp89
I1
aI4
aI0
aI1
aI2
aI1
aI2
aa(lp90
I1
aI4
aI0
aI1
aI2
aI2
aI1
aa(lp91
I0
aI0
aI0
aI1
aI4
aI0
aI0
aa(lp92
I0
aI0
aI0
aI1
aI4
aI0
aI0
aa(lp93
I0
aI2
aI0
aI2
aI1
aI1
aI1
aa(lp94
I0
aI2
aI0
aI2
aI1
aI1
aI1
aa(lp95
I0
aI2
aI0
aI2
aI2
aI0
aI1
aa(lp96
I0
aI2
aI0
aI2
aI2
aI1
aI0
aa(lp97
I0
aI4
aI0
aI3
aI0
aI1
aI1
aa(lp98
I1
aI2
aI0
aI1
aI2
aI0
aI2
aa(lp99
I1
aI2
aI0
aI1
aI2
aI1
aI1
aa(lp100
I0
aI0
aI0
aI0
aI3
aI0
aI1
aa(lp101
I0
aI0
aI0
aI0
aI3
aI0
aI1
aa(lp102
I0
aI0
aI0
aI0
aI3
aI0
aI1
aa(lp103
I0
aI0
aI0
aI0
aI3
aI0
aI1
aa(lp104
I0
aI2
aI0
aI1
aI1
aI0
aI2
aa(lp105
I0
aI2
aI0
aI1
aI1
aI1
aI1
aa(lp106
I1
aI2
aI0
aI1
aI2
aI0
aI1
aa(lp107
I1
aI2
aI0
aI1
aI2
aI0
aI1
aa(lp108
I1
aI4
aI0
aI0
aI2
aI0
aI2
aa(lp109
I1
aI4
aI0
aI0
aI2
aI1
aI1
aa(lp110
I0
aI0
aI0
aI1
aI0
aI0
aI2
aa(lp111
I0
aI0
aI0
aI1
aI0
aI0
aI2
aa(lp112
I0
aI2
aI0
aI1
aI1
aI0
aI1
aa(lp113
I0
aI2
aI0
aI1
aI1
aI0
aI1
aa(lp114
I0
aI0
aI0
aI0
aI0
aI1
aI0
aa(lp115
I0
aI0
aI0
aI1
aI0
aI0
aI0
aa(lp116
I0
aI0
aI0
aI1
aI0
aI0
aI0
aa.