(lp0
(lp1
I2
aI0
aI0
aI8
aI13
aI0
aI0
aa(lp2
I2
aI0
aI0
aI10
aI11
aI0
aI0
aa(lp3
I4
aI1
aI0
aI8
aI13
aI0
aI0
aa(lp4
I4
aI1
aI0
aI8
aI13
aI0
aI0
aa(lp5
I4
aI1
aI0
aI8
aI13
aI0
aI0
aa(lp6
I4
aI1
aI0
aI10
aI11
aI0
aI0
aa(lp7
I4
aI1
aI0
aI10
aI11
aI0
aI0
aa(lp8
I4
aI1
aI0
aI10
aI11
aI0
aI0
aa(lp9
I4
aI1
aI0
aI8
aI12
aI0
aI0
aa(lp10
I4
aI1
aI0
aI9
aI11
aI0
aI0
aa(lp11
I3
aI1
aI0
aI8
aI11
aI0
aI0
aa(lp12
I3
aI1
aI0
aI8
aI11
aI0
aI0
aa(lp13
I3
aI1
aI0
aI10
aI9
aI0
aI0
aa(lp14
I3
aI1
aI0
aI10
aI9
aI0
aI0
aa(lp15
I4
aI2
aI0
aI7
aI12
aI0
aI0
aa(lp16
I2
aI0
aI0
aI7
aI11
aI0
aI0
aa(lp17
I3
aI0
aI0
aI8
aI10
aI0
aI0
aa(lp18
I3
aI0
aI0
aI8
aI10
aI0
aI0
aa(lp19
I3
aI0
aI0
aI10
aI8
aI0
aI0
aa(lp20
I3
aI0
aI0
aI10
aI8
aI0
aI0
aa(lp21
I4
aI1
aI0
aI8
aI10
aI0
aI0
aa(lp22
I5
aI1
aI0
aI8
aI10
aI0
aI0
aa(lp23
I1
aI0
aI0
aI7
aI10
aI0
aI0
aa(lp24
I1
aI1
aI0
aI9
aI8
aI0
aI0
aa(lp25
I1
aI1
aI0
aI9
aI8
aI0
aI0
aa(lp26
I1
aI1
aI0
aI11
aI6
aI0
aI0
aa(lp27
I1
aI1
aI0
aI11
aI6
aI0
aI0
aa(lp28
I2
aI0
aI0
aI6
aI11
aI0
aI0
aa(lp29
I2
aI0
aI0
aI8
aI9
aI0
aI0
aa(lp30
I2
aI0
aI0
aI8
aI9
aI0
aI0
aa(lp31
I2
aI0
aI0
aI8
aI9
aI0
aI0
aa(lp32
I3
aI1
aI0
aI8
aI9
aI0
aI0
aa(lp33
I3
aI1
aI0
aI10
aI7
aI0
aI0
aa(lp34
I4
aI0
aI0
aI6
aI11
aI0
aI0
aa(lp35
I4
aI0
aI0
aI8
aI9
aI0
aI0
aa(lp36
I1
aI2
aI0
aI7
aI9
aI0
aI0
aa(lp37
I1
aI2
aI0
aI7
aI9
aI0
aI0
aa(lp38
I1
aI2
aI0
aI9
aI7
aI0
aI0
aa(lp39
I1
aI2
aI0
aI9
aI7
aI0
aI0
aa(lp40
I2
aI1
aI0
aI7
aI9
aI0
aI0
aa(lp41
I3
aI0
aI0
aI6
aI10
aI0
aI0
aa(lp42
I3
aI0
aI0
aI8
aI8
aI0
aI0
aa(lp43
I3
aI1
aI0
aI6
aI10
aI0
aI0
aa(lp44
I3
aI1
aI0
aI8
aI8
aI0
aI0
aa(lp45
I3
aI1
aI0
aI8
aI8
aI0
aI0
aa(lp46
I0
aI0
aI0
aI7
aI8
aI0
aI0
aa(lp47
I0
aI0
aI0
aI7
aI8
aI0
aI0
aa(lp48
I0
aI0
aI0
aI9
aI6
aI0
aI0
aa(lp49
I0
aI0
aI0
aI9
aI6
aI0
aI0
aa(lp50
I0
aI1
aI0
aI7
aI8
aI0
aI0
aa(lp51
I1
aI0
aI0
aI6
aI9
aI0
aI0
aa(lp52
I1
aI0
aI0
aI7
aI8
aI0
aI0
aa(lp53
I1
aI0
aI0
aI8
aI7
aI0
aI0
aa(lp54
I1
aI0
aI0
aI8
aI7
aI0
aI0
aa(lp55
I1
aI0
aI0
aI9
aI6
aI0
aI0
aa(lp56
I1
aI0
aI0
aI10
aI5
aI0
aI0
aa(lp57
I1
aI1
aI0
aI7
aI8
aI0
aI0
aa(lp58
I1
aI1
aI0
aI7
aI8
aI0
aI0
aa(lp59
I1
aI1
aI0
aI8
aI7
aI0
aI0
aa(lp60
I1
aI1
aI0
aI9
aI6
aI0
aI0
aa(lp61
I1
aI1
aI0
aI9
aI6
aI0
aI0
aa(lp62
I1
aI1
aI0
aI10
aI5
aI0
aI0
aa(lp63
I2
aI0
aI0
aI6
aI9
aI0
aI0
aa(lp64
I2
aI0
aI0
aI7
aI8
aI0
aI0
aa(lp65
I2
aI0
aI0
aI8
aI7
aI0
aI0
aa(lp66
I2
aI0
aI0
aI9
aI6
aI0
aI0
aa(lp67
I2
aI0
aI0
aI9
aI6
aI0
aI0
aa(lp68
I2
aI1
aI0
aI6
aI9
aI0
aI0
aa(lp69
I2
aI1
aI0
aI6
aI9
aI0
aI0
aa(lp70
I2
aI1
aI0
aI8
aI7
aI0
aI0
aa(lp71
I2
aI1
aI0
aI8
aI7
aI0
aI0
aa(lp72
I2
aI1
aI0
aI8
aI7
aI0
aI0
aa(lp73
I2
aI1
aI0
aI8
aI7
aI0
aI0
aa(lp74
I2
aI1
aI0
aI10
aI5
aI0
aI0
aa(lp75
I2
aI1
aI0
aI10
aI5
aI0
aI0
aa(lp76
I3
aI0
aI0
aI8
aI7
aI0
aI0
aa(lp77
I3
aI0
aI0
aI8
aI7
aI0
aI0
aa(lp78
I3
aI0
aI0
aI8
aI7
aI0
aI0
aa(lp79
I3
aI2
aI0
aI5
aI10
aI0
aI0
aa(lp80
I3
aI2
aI0
aI7
aI8
aI0
aI0
aa(lp81
I4
aI0
aI0
aI6
aI9
aI0
aI0
aa(lp82
I4
aI0
aI0
aI8
aI7
aI0
aI0
aa(lp83
I4
aI1
aI0
aI9
aI6
aI0
aI0
aa(lp84
I5
aI1
aI0
aI8
aI7
aI0
aI0
aa(lp85
I1
aI0
aI0
aI7
aI7
aI0
aI0
aa(lp86
I1
aI0
aI0
aI7
aI7
aI0
aI0
aa(lp87
I2
aI0
aI0
aI5
aI9
aI0
aI0
aa(lp88
I2
aI0
aI0
aI6
aI8
aI0
aI0
aa(lp89
I2
aI0
aI0
aI7
aI7
aI0
aI0
aa(lp90
I2
aI1
aI0
aI7
aI7
aI0
aI0
aa(lp91
I2
aI1
aI0
aI7
aI7
aI0
aI0
aa(lp92
I2
aI1
aI0
aI7
aI7
aI0
aI0
aa(lp93
I2
aI1
aI0
aI7
aI7
aI0
aI0
aa(lp94
I2
aI1
aI0
aI7
aI7
aI0
aI0
aa(lp95
I2
aI1
aI0
aI9
aI5
aI0
aI0
aa(lp96
I2
aI1
aI0
aI9
aI5
aI0
aI0
aa(lp97
I2
aI1
aI0
aI9
aI5
aI0
aI0
aa(lp98
I3
aI1
aI0
aI8
aI6
aI0
aI0
aa(lp99
I3
aI1
aI0
aI8
aI6
aI0
aI0
aa(lp100
I3
aI1
aI0
aI10
aI4
aI0
aI0
aa(lp101
I4
aI0
aI0
aI5
aI9
aI0
aI0
aa(lp102
I4
aI0
aI0
aI6
aI8
aI0
aI0
aa(lp103
I4
aI0
aI0
aI7
aI7
aI0
aI0
aa(lp104
I4
aI1
aI0
aI8
aI6
aI0
aI0
aa(lp105
I0
aI0
aI0
aI5
aI8
aI0
aI0
aa(lp106
I0
aI0
aI0
aI7
aI6
aI0
aI0
aa(lp107
I1
aI0
aI0
aI5
aI8
aI0
aI0
aa(lp108
I1
aI1
aI0
aI5
aI8
aI0
aI0
aa(lp109
I1
aI1
aI0
aI7
aI6
aI0
aI0
aa(lp110
I2
aI0
aI0
aI7
aI6
aI0
aI0
aa(lp111
I2
aI1
aI0
aI5
aI8
aI0
aI0
aa(lp112
I2
aI2
aI0
aI5
aI8
aI0
aI0
aa(lp113
I2
aI2
aI0
aI5
aI8
aI0
aI0
aa(lp114
I2
aI2
aI0
aI5
aI8
aI0
aI0
aa(lp115
I2
aI2
aI0
aI5
aI8
aI0
aI0
aa(lp116
I2
aI2
aI0
aI5
aI8
aI0
aI0
aa(lp117
I2
aI2
aI0
aI7
aI6
aI0
aI0
aa(lp118
I2
aI2
aI0
aI7
aI6
aI0
aI0
aa(lp119
I2
aI2
aI0
aI7
aI6
aI0
aI0
aa(lp120
I3
aI0
aI0
aI6
aI7
aI0
aI0
aa(lp121
I3
aI0
aI0
aI6
aI7
aI0
aI0
aa(lp122
I3
aI0
aI0
aI8
aI5
aI0
aI0
aa(lp123
I4
aI0
aI0
aI6
aI7
aI0
aI0
aa(lp124
I4
aI1
aI0
aI7
aI6
aI0
aI0
aa(lp125
I0
aI0
aI0
aI5
aI7
aI0
aI0
aa(lp126
I0
aI0
aI0
aI5
aI7
aI0
aI0
aa(lp127
I0
aI0
aI0
aI7
aI5
aI0
aI0
aa(lp128
I0
aI0
aI0
aI7
aI5
aI0
aI0
aa(lp129
I1
aI0
aI0
aI4
aI8
aI0
aI0
aa(lp130
I1
aI0
aI0
aI5
aI7
aI0
aI0
aa(lp131
I1
aI0
aI0
aI5
aI7
aI0
aI0
aa(lp132
I1
aI0
aI0
aI6
aI6
aI0
aI0
aa(lp133
I1
aI0
aI0
aI7
aI5
aI0
aI0
aa(lp134
I1
aI1
aI0
aI5
aI7
aI0
aI0
aa(lp135
I1
aI1
aI0
aI5
aI7
aI0
aI0
aa(lp136
I1
aI1
aI0
aI5
aI7
aI0
aI0
aa(lp137
I2
aI0
aI0
aI5
aI7
aI0
aI0
aa(lp138
I2
aI0
aI0
aI5
aI7
aI0
aI0
aa(lp139
I2
aI0
aI0
aI7
aI5
aI0
aI0
aa(lp140
I2
aI1
aI0
aI5
aI7
aI0
aI0
aa(lp141
I2
aI1
aI0
aI5
aI7
aI0
aI0
aa(lp142
I2
aI1
aI0
aI5
aI7
aI0
aI0
aa(lp143
I2
aI1
aI0
aI6
aI6
aI0
aI0
aa(lp144
I2
aI1
aI0
aI6
aI6
aI0
aI0
aa(lp145
I2
aI1
aI0
aI7
aI5
aI0
aI0
aa(lp146
I2
aI1
aI0
aI8
aI4
aI0
aI0
aa(lp147
I3
aI0
aI0
aI5
aI7
aI0
aI0
aa(lp148
I3
aI0
aI0
aI5
aI7
aI0
aI0
aa(lp149
I3
aI0
aI0
aI7
aI5
aI0
aI0
aa(lp150
I3
aI1
aI0
aI4
aI8
aI0
aI0
aa(lp151
I3
aI1
aI0
aI4
aI8
aI0
aI0
aa(lp152
I3
aI1
aI0
aI4
aI8
aI0
aI0
aa(lp153
I3
aI1
aI0
aI6
aI6
aI0
aI0
aa(lp154
I3
aI1
aI0
aI6
aI6
aI0
aI0
aa(lp155
I3
aI1
aI0
aI6
aI6
aI0
aI0
aa(lp156
I4
aI0
aI0
aI5
aI7
aI0
aI0
aa(lp157
I4
aI0
aI0
aI6
aI6
aI0
aI0
aa(lp158
I1
aI0
aI0
aI7
aI4
aI0
aI0
aa(lp159
I1
aI1
aI0
aI5
aI6
aI0
aI0
aa(lp160
I1
aI1
aI0
aI5
aI6
aI0
aI0
aa(lp161
I2
aI0
aI0
aI7
aI4
aI0
aI0
aa(lp162
I2
aI0
aI0
aI7
aI4
aI0
aI0
aa(lp163
I2
aI1
aI0
aI4
aI7
aI0
aI0
aa(lp164
I2
aI1
aI0
aI7
aI4
aI0
aI0
aa(lp165
I2
aI1
aI0
aI7
aI4
aI0
aI0
aa(lp166
I3
aI0
aI0
aI7
aI4
aI0
aI0
aa(lp167
I3
aI1
aI0
aI5
aI6
aI0
aI0
aa(lp168
I3
aI1
aI0
aI7
aI4
aI0
aI0
aa(lp169
I4
aI0
aI0
aI5
aI6
aI0
aI0
aa(lp170
I4
aI1
aI0
aI8
aI3
aI0
aI0
aa(lp171
I4
aI1
aI0
aI8
aI3
aI0
aI0
aa(lp172
I0
aI0
aI0
aI3
aI7
aI0
aI0
aa(lp173
I0
aI0
aI0
aI5
aI5
aI0
aI0
aa(lp174
I0
aI0
aI0
aI5
aI5
aI0
aI0
aa(lp175
I0
aI1
aI0
aI5
aI5
aI0
aI0
aa(lp176
I0
aI1
aI0
aI7
aI3
aI0
aI0
aa(lp177
I1
aI0
aI0
aI5
aI5
aI0
aI0
aa(lp178
I1
aI1
aI0
aI5
aI5
aI0
aI0
aa(lp179
I2
aI0
aI0
aI3
aI7
aI0
aI0
aa(lp180
I2
aI0
aI0
aI3
aI7
aI0
aI0
aa(lp181
I2
aI1
aI0
aI3
aI7
aI0
aI0
aa(lp182
I2
aI1
aI0
aI5
aI5
aI0
aI0
aa(lp183
I2
aI1
aI0
aI5
aI5
aI0
aI0
aa(lp184
I2
aI1
aI0
aI5
aI5
aI0
aI0
aa(lp185
I2
aI2
aI0
aI5
aI5
aI0
aI0
aa(lp186
I2
aI2
aI0
aI5
aI5
aI0
aI0
aa(lp187
I3
aI1
aI0
aI5
aI5
aI0
aI0
aa(lp188
I3
aI2
aI0
aI3
aI7
aI0
aI0
aa(lp189
I4
aI0
aI0
aI6
aI4
aI0
aI0
aa(lp190
I4
aI0
aI0
aI6
aI4
aI0
aI0
aa(lp191
I1
aI0
aI0
aI4
aI5
aI0
aI0
aa(lp192
I1
aI0
aI0
aI5
aI4
aI0
aI0
aa(lp193
I1
aI0
aI0
aI6
aI3
aI0
aI0
aa(lp194
I1
aI1
aI0
aI3
aI6
aI0
aI0
aa(lp195
I1
aI1
aI0
aI5
aI4
aI0
aI0
aa(lp196
I1
aI1
aI0
aI5
aI4
aI0
aI0
aa(lp197
I1
aI2
aI0
aI3
aI6
aI0
aI0
aa(lp198
I1
aI2
aI0
aI5
aI4
aI0
aI0
aa(lp199
I2
aI0
aI0
aI5
aI4
aI0
aI0
aa(lp200
I2
aI0
aI0
aI5
aI4
aI0
aI0
aa(lp201
I2
aI1
aI0
aI3
aI6
aI0
aI0
aa(lp202
I2
aI1
aI0
aI6
aI3
aI0
aI0
aa(lp203
I3
aI0
aI0
aI5
aI4
aI0
aI0
aa(lp204
I3
aI1
aI0
aI3
aI6
aI0
aI0
aa(lp205
I3
aI1
aI0
aI4
aI5
aI0
aI0
aa(lp206
I4
aI0
aI0
aI5
aI4
aI0
aI0
aa(lp207
I4
aI0
aI0
aI5
aI4
aI0
aI0
aa(lp208
I0
aI0
aI0
aI3
aI5
aI0
aI0
aa(lp209
I0
aI0
aI0
aI5
aI3
aI0
aI0
aa(lp210
I0
aI1
aI0
aI3
aI5
aI0
aI0
aa(lp211
I1
aI0
aI0
aI3
aI5
aI0
aI0
aa(lp212
I1
aI0
aI0
aI3
aI5
aI0
aI0
aa(lp213
I1
aI0
aI0
aI5
aI3
aI0
aI0
aa(lp214
I1
aI1
aI0
aI3
aI5
aI0
aI0
aa(lp215
I1
aI1
aI0
aI3
aI5
aI0
aI0
aa(lp216
I2
aI1
aI0
aI4
aI4
aI0
aI0
aa(lp217
I2
aI1
aI0
aI6
aI2
aI0
aI0
aa(lp218
I0
aI0
aI0
aI3
aI4
aI0
aI0
aa(lp219
I1
aI0
aI0
aI5
aI2
aI0
aI0
aa(lp220
I1
aI1
aI0
aI1
aI6
aI0
aI0
aa(lp221
I1
aI1
aI0
aI3
aI4
aI0
aI0
aa(lp222
I1
aI1
aI0
aI3
aI4
aI0
aI0
aa(lp223
I2
aI0
aI0
aI2
aI5
aI0
aI0
aa(lp224
I2
aI0
aI0
aI3
aI4
aI0
aI0
aa(lp225
I2
aI0
aI0
aI4
aI3
aI0
aI0
aa(lp226
I2
aI1
aI0
aI5
aI2
aI0
aI0
aa(lp227
I3
aI1
aI0
aI3
aI4
aI0
aI0
aa(lp228
I0
aI0
aI0
aI1
aI5
aI0
aI0
aa(lp229
I1
aI0
aI0
aI2
aI4
aI0
aI0
aa(lp230
I2
aI0
aI0
aI1
aI5
aI0
aI0
aa(lp231
I2
aI2
aI0
aI1
aI5
aI0
aI0
aa(lp232
I1
aI0
aI0
aI1
aI4
aI0
aI0
aa(lp233
I1
aI1
aI0
aI1
aI4
aI0
aI0
aa(lp234
I2
aI1
aI0
aI1
aI4
aI0
aI0
aa(lp235
I0
aI1
aI0
aI1
aI2
aI0
aI0
aa(lp236
I0
aI1
aI0
aI1
aI2
aI0
aI0
aa(lp237
I1
aI1
aI0
aI3
aI0
aI0
aI0
aa(lp238
I1
aI0
aI0
aI1
aI1
aI0
aI0
aa(lp239
I1
aI1
aI0
aI1
aI1
aI0
aI0
aa(lp240
I0
aI2
aI0
aI1
aI0
aI0
aI0
aa(lp241
I1
aI0
aI0
aI1
aI0
aI0
aI0
aa(lp242
I1
aI1
aI0
aI1
aI0
aI0
aI0
aa(lp243
I2
aI0
aI0
aI1
aI0
aI0
aI0
aa.