(lp0
F0.9999100035999164
aF0.9999200027999444
aF0.9999200027999444
aF0.9999200027999444
aF0.9999200027999444
aF0.9999200027999444
aF0.9999200027999444
aF0.9999300020999654
aF0.9999300020999654
aF0.9999300020999654
aF0.9999400014999804
aF0.9999400014999804
aF0.9999400014999804
aF0.9999400014999804
aF0.9999400014999804
aF0.9999500009999903
aF0.9999500009999903
aF0.9999500009999903
aF0.9999600005999962
aF0.9999600005999962
aF0.9999600005999962
aF0.9999600005999962
aF0.9999600005999962
aF0.9999600005999962
aF0.9999600005999962
aF0.9999600005999962
aF0.9999600005999962
aF0.9999600005999962
aF0.9999700002999992
aF0.9999700002999992
aF0.9999700002999992
aF0.9999800001000001
aF0.99999
aF0.99999
aF0.99999
aF0.99999
aF0.99999
a.