(lp0
F0.999790020998671
aF0.999790020998671
aF0.999790020998671
aF0.999790020998671
aF0.999790020998671
aF0.999790020998671
aF0.999790020998671
aF0.999790020998671
aF0.999800018998861
aF0.999800018998861
aF0.999810017099032
aF0.999810017099032
aF0.999810017099032
aF0.999810017099032
aF0.999810017099032
aF0.9998200152991848
aF0.9998200152991848
aF0.9998200152991848
aF0.9998200152991848
aF0.9998200152991848
aF0.9998200152991848
aF0.9998200152991848
aF0.9998300135993208
aF0.9998300135993208
aF0.9998300135993208
aF0.9998300135993208
aF0.9998300135993208
aF0.9998300135993208
aF0.9998300135993208
aF0.9998300135993208
aF0.9998300135993208
aF0.9998300135993208
aF0.9998300135993208
aF0.9998300135993208
aF0.9998300135993208
aF0.9998400119994407
aF0.9998400119994407
aF0.9998400119994407
aF0.9998400119994407
aF0.9998400119994407
aF0.9998400119994407
aF0.9998400119994407
aF0.9998400119994407
aF0.9998400119994407
aF0.9998400119994407
aF0.9998500104995457
aF0.9998500104995457
aF0.9998500104995457
aF0.9998500104995457
aF0.9998500104995457
aF0.9998500104995457
aF0.9998500104995457
aF0.9998500104995457
aF0.9998500104995457
aF0.9998500104995457
aF0.9998500104995457
aF0.9998500104995457
aF0.9998500104995457
aF0.9998500104995457
aF0.9998500104995457
aF0.9998500104995457
aF0.9998500104995457
aF0.9998500104995457
aF0.9998500104995457
aF0.9998500104995457
aF0.9998500104995457
aF0.9998500104995457
aF0.9998500104995457
aF0.9998500104995457
aF0.9998500104995457
aF0.9998500104995457
aF0.9998500104995457
aF0.9998500104995457
aF0.9998500104995457
aF0.9998500104995457
aF0.9998500104995457
aF0.9998500104995457
aF0.9998500104995457
aF0.9998500104995457
aF0.9998500104995457
aF0.9998500104995457
aF0.9998500104995457
aF0.9998500104995457
aF0.9998500104995457
aF0.9998600090996367
aF0.9998600090996367
aF0.9998600090996367
aF0.9998600090996367
aF0.9998600090996367
aF0.9998600090996367
aF0.9998600090996367
aF0.9998600090996367
aF0.9998600090996367
aF0.9998600090996367
aF0.9998600090996367
aF0.9998600090996367
aF0.9998600090996367
aF0.9998600090996367
aF0.9998600090996367
aF0.9998600090996367
aF0.9998600090996367
aF0.9998600090996367
aF0.9998600090996367
aF0.9998600090996367
aF0.9998700077997147
aF0.9998700077997147
aF0.9998700077997147
aF0.9998700077997147
aF0.9998700077997147
aF0.9998700077997147
aF0.9998700077997147
aF0.9998700077997147
aF0.9998700077997147
aF0.9998700077997147
aF0.9998700077997147
aF0.9998700077997147
aF0.9998700077997147
aF0.9998700077997147
aF0.9998700077997147
aF0.9998700077997147
aF0.9998700077997147
aF0.9998700077997147
aF0.9998700077997147
aF0.9998700077997147
aF0.9998800065997806
aF0.9998800065997806
aF0.9998800065997806
aF0.9998800065997806
aF0.9998800065997806
aF0.9998800065997806
aF0.9998800065997806
aF0.9998800065997806
aF0.9998800065997806
aF0.9998800065997806
aF0.9998800065997806
aF0.9998800065997806
aF0.9998800065997806
aF0.9998800065997806
aF0.9998800065997806
aF0.9998800065997806
aF0.9998800065997806
aF0.9998800065997806
aF0.9998800065997806
aF0.9998800065997806
aF0.9998800065997806
aF0.9998800065997806
aF0.9998800065997806
aF0.9998800065997806
aF0.9998800065997806
aF0.9998800065997806
aF0.9998800065997806
aF0.9998800065997806
aF0.9998800065997806
aF0.9998800065997806
aF0.9998800065997806
aF0.9998800065997806
aF0.9998800065997806
aF0.9998900054998355
aF0.9998900054998355
aF0.9998900054998355
aF0.9998900054998355
aF0.9998900054998355
aF0.9998900054998355
aF0.9998900054998355
aF0.9998900054998355
aF0.9998900054998355
aF0.9998900054998355
aF0.9998900054998355
aF0.9998900054998355
aF0.9998900054998355
aF0.9998900054998355
aF0.9999000044998805
aF0.9999000044998805
aF0.9999000044998805
aF0.9999000044998805
aF0.9999000044998805
aF0.9999000044998805
aF0.9999000044998805
aF0.9999000044998805
aF0.9999000044998805
aF0.9999000044998805
aF0.9999000044998805
aF0.9999000044998805
aF0.9999000044998805
aF0.9999000044998805
aF0.9999000044998805
aF0.9999000044998805
aF0.9999000044998805
aF0.9999000044998805
aF0.9999000044998805
aF0.9999100035999164
aF0.9999100035999164
aF0.9999100035999164
aF0.9999100035999164
aF0.9999100035999164
aF0.9999100035999164
aF0.9999100035999164
aF0.9999100035999164
aF0.9999100035999164
aF0.9999100035999164
aF0.9999100035999164
aF0.9999100035999164
aF0.9999100035999164
aF0.9999100035999164
aF0.9999100035999164
aF0.9999100035999164
aF0.9999100035999164
aF0.9999200027999444
aF0.9999200027999444
aF0.9999200027999444
aF0.9999200027999444
aF0.9999200027999444
aF0.9999200027999444
aF0.9999200027999444
aF0.9999200027999444
aF0.9999200027999444
aF0.9999200027999444
aF0.9999300020999654
aF0.9999300020999654
aF0.9999300020999654
aF0.9999300020999654
aF0.9999300020999654
aF0.9999300020999654
aF0.9999300020999654
aF0.9999300020999654
aF0.9999300020999654
aF0.9999300020999654
aF0.9999400014999804
aF0.9999400014999804
aF0.9999400014999804
aF0.9999400014999804
aF0.9999500009999903
aF0.9999500009999903
aF0.9999500009999903
aF0.9999700002999992
aF0.9999700002999992
aF0.9999700002999992
aF0.9999800001000001
aF0.9999800001000001
aF0.99999
aF0.99999
aF0.99999
aF0.99999
a.