(lp0
(lp1
(lp2
I5
aS'off'
p3
aa(lp4
I9
aS'off'
p5
aa(lp6
I14
aS'on'
p7
aa(lp8
I15
aS'off'
p9
aa(lp10
I16
aS'on'
p11
aa(lp12
I10
aS'on'
p13
aa(lp14
I7
aS'on'
p15
aa(lp16
I11
aS'on'
p17
aa(lp18
I12
aS'off'
p19
aa(lp20
I13
aS'on'
p21
aa(lp22
I3
aS'off'
p23
aa(lp24
I2
aS'off'
p25
aa(lp26
I6
aS'on'
p27
aa(lp28
I2
aS'off'
p29
aa(lp30
I1
aS'off'
p31
aa(lp32
I8
aS'on'
p33
aa(lp34
I4
aS'on'
p35
aaa(lp36
(lp37
I12
aS'off'
p38
aa(lp39
I15
aS'on'
p40
aa(lp41
I16
ag11
aa(lp42
I10
ag13
aa(lp43
I7
ag15
aa(lp44
I11
aS'off'
p45
aa(lp46
I14
aS'on'
p47
aa(lp48
I11
aS'off'
p49
aa(lp50
I12
ag19
aa(lp51
I13
ag21
aa(lp52
I3
ag23
aa(lp53
I2
ag25
aa(lp54
I6
ag27
aa(lp55
I2
ag29
aa(lp56
I1
ag31
aa(lp57
I8
ag33
aa(lp58
I4
ag35
aaa(lp59
g2
ag4
a(lp60
I14
aS'off'
p61
aa(lp62
I11
ag49
aa(lp63
I12
aS'on'
p64
aa(lp65
I15
ag40
aa(lp66
I16
ag11
aa(lp67
I10
ag13
aa(lp68
I7
aS'off'
p69
aa(lp70
I3
aS'on'
p71
aa(lp72
I2
ag25
aa(lp73
I6
ag27
aa(lp74
I2
ag29
aa(lp75
I1
ag31
aa(lp76
I8
ag33
aa(lp77
I4
ag35
aaa(lp78
g2
ag4
ag60
a(lp79
I11
aS'on'
p80
aa(lp81
I14
aS'off'
p82
aa(lp83
I15
ag9
aa(lp84
I16
ag11
aa(lp85
I10
ag13
aa(lp86
I7
ag69
aa(lp87
I3
ag71
aa(lp88
I2
ag25
aa(lp89
I6
ag27
aa(lp90
I2
ag29
aa(lp91
I1
ag31
aa(lp92
I8
ag33
aa(lp93
I4
ag35
aaa(lp94
g2
a(lp95
I9
aS'on'
p96
aa(lp97
I10
aS'off'
p98
aa(lp99
I7
ag15
aa(lp100
I11
ag45
aa(lp101
I14
ag47
aa(lp102
I11
ag49
aa(lp103
I12
ag19
aa(lp104
I13
ag21
aa(lp105
I3
ag23
aa(lp106
I2
ag25
aa(lp107
I6
ag27
aa(lp108
I2
ag29
aa(lp109
I1
ag31
aa(lp110
I8
ag33
aa(lp111
I4
ag35
aaa(lp112
g2
ag95
ag97
ag99
ag100
ag101
ag102
a(lp113
I12
ag64
aa(lp114
I15
ag40
aa(lp115
I16
ag11
aa(lp116
I10
aS'off'
p117
aa(lp118
I6
aS'off'
p119
aa(lp120
I2
ag29
aa(lp121
I1
ag31
aa(lp122
I8
ag33
aa(lp123
I4
ag35
aaa(lp124
g2
ag95
ag97
ag99
ag100
ag101
ag102
ag113
ag114
ag115
ag116
ag118
a(lp125
I2
aS'on'
p126
aa(lp127
I6
aS'off'
p128
aa(lp129
I5
aS'off'
p130
aa(lp131
I4
aS'off'
p132
aaa(lp133
g37
ag39
ag41
a(lp134
I10
ag117
aa(lp135
I6
aS'on'
p136
aa(lp137
I5
aS'on'
p138
aa(lp139
I9
ag5
aa(lp140
I14
ag61
aa(lp141
I11
ag49
aa(lp142
I12
ag19
aa(lp143
I13
ag21
aa(lp144
I3
ag23
aa(lp145
I2
aS'on'
p146
aa(lp147
I1
ag31
aa(lp148
I8
ag33
aa(lp149
I4
ag35
aaa(lp150
g37
ag39
ag41
ag42
ag43
ag44
ag46
ag48
ag50
ag51
ag52
ag53
ag54
ag55
ag56
a(lp151
I8
aS'off'
p152
aaa(lp153
g2
ag4
ag6
ag8
ag10
ag12
ag14
ag16
ag18
ag20
ag22
ag24
a(lp154
I6
ag128
aa(lp155
I5
ag130
aa(lp156
I4
ag132
aaa(lp157
g2
ag4
ag6
ag8
ag10
ag12
ag14
ag16
ag18
ag20
ag22
a(lp158
I2
ag146
aa(lp159
I1
ag31
aa(lp160
I8
ag33
aa(lp161
I4
ag35
aaa(lp162
g37
ag39
ag41
ag134
ag135
ag137
ag139
ag140
ag141
ag142
ag143
ag144
ag145
ag147
a(lp163
I8
ag152
aaa(lp164
g37
ag39
ag41
ag42
ag43
ag44
ag46
ag48
ag50
ag51
ag52
ag53
a(lp165
I6
ag128
aa(lp166
I5
ag130
aa(lp167
I4
ag132
aaa(lp168
g37
ag39
ag41
ag42
ag43
ag44
ag46
ag48
ag50
ag51
ag52
a(lp169
I2
ag146
aa(lp170
I1
ag31
aa(lp171
I8
ag33
aa(lp172
I4
ag35
aaa(lp173
g37
ag39
ag41
ag42
ag43
a(lp174
I11
ag17
aa(lp175
I12
ag19
aa(lp176
I13
ag21
aa(lp177
I3
ag23
aa(lp178
I2
ag25
aa(lp179
I6
ag27
aa(lp180
I2
ag29
aa(lp181
I1
ag31
aa(lp182
I8
ag33
aa(lp183
I4
ag35
aaa(lp184
(lp185
I13
aS'off'
p186
aa(lp187
I3
ag23
aa(lp188
I2
ag25
aa(lp189
I6
ag128
aa(lp190
I5
ag138
aa(lp191
I9
ag96
aa(lp192
I10
ag98
aa(lp193
I7
ag15
aa(lp194
I11
ag45
aa(lp195
I14
ag47
aa(lp196
I11
ag49
aa(lp197
I12
ag64
aa(lp198
I15
aS'off'
p199
aa(lp200
I8
aS'off'
p201
aa(lp202
I4
ag35
aaa(lp203
g185
ag187
a(lp204
I2
ag146
aa(lp205
I1
aS'on'
p206
aa(lp207
I7
ag15
aa(lp208
I11
ag45
aa(lp209
I14
ag47
aa(lp210
I11
ag49
aa(lp211
I12
ag64
aa(lp212
I15
ag40
aa(lp213
I16
ag11
aa(lp214
I10
ag117
aa(lp215
I6
ag136
aa(lp216
I5
ag130
aa(lp217
I4
ag132
aaa(lp218
(lp219
I16
aS'off'
p220
aa(lp221
I10
ag13
aa(lp222
I7
ag15
aa(lp223
I11
ag45
aa(lp224
I14
ag47
aa(lp225
I11
ag49
aa(lp226
I12
ag19
aa(lp227
I13
ag21
aa(lp228
I3
ag23
aa(lp229
I2
ag25
aa(lp230
I6
ag27
aa(lp231
I2
ag29
aa(lp232
I1
ag31
aa(lp233
I8
ag33
aa(lp234
I4
ag35
aaa(lp235
g219
ag221
ag222
a(lp236
I11
ag17
aa(lp237
I12
ag19
aa(lp238
I13
ag21
aa(lp239
I3
ag23
aa(lp240
I2
ag25
aa(lp241
I6
ag128
aa(lp242
I5
ag138
aa(lp243
I9
ag5
aa(lp244
I14
ag7
aa(lp245
I15
aS'on'
p246
aa(lp247
I8
ag201
aa(lp248
I4
ag35
aaa(lp249
g2
ag4
ag60
ag62
ag63
ag65
ag66
ag67
ag68
ag70
ag72
a(lp250
I6
ag128
aa(lp251
I5
ag130
aa(lp252
I4
ag132
aaa(lp253
g2
ag4
ag60
ag62
ag63
ag65
ag66
ag67
ag68
ag70
a(lp254
I2
ag146
aa(lp255
I1
ag31
aa(lp256
I8
ag33
aa(lp257
I4
ag35
aaa(lp258
g2
ag4
ag60
ag79
ag81
ag83
ag84
ag85
ag86
ag87
ag88
a(lp259
I6
ag128
aa(lp260
I5
ag130
aa(lp261
I4
ag132
aaa(lp262
g2
ag4
ag60
ag79
ag81
ag83
ag84
ag85
ag86
ag87
a(lp263
I2
ag146
aa(lp264
I1
ag31
aa(lp265
I8
ag33
aa(lp266
I4
ag35
aaa(lp267
g2
ag4
ag6
ag8
ag10
a(lp268
I10
ag117
aa(lp269
I6
ag119
aa(lp270
I2
ag29
aa(lp271
I1
ag206
aa(lp272
I7
ag15
aa(lp273
I11
ag17
aa(lp274
I12
ag19
aa(lp275
I13
ag21
aa(lp276
I3
aS'on'
p277
aaa(lp278
g2
ag4
ag6
ag8
ag10
ag12
a(lp279
I7
ag69
aa(lp280
I3
ag71
aa(lp281
I2
ag25
aa(lp282
I6
ag27
aa(lp283
I2
ag29
aa(lp284
I1
ag31
aa(lp285
I8
ag33
aa(lp286
I4
ag35
aaa(lp287
g2
ag95
ag97
ag99
ag100
a(lp288
I14
ag82
aa(lp289
I15
ag9
aa(lp290
I16
ag11
aa(lp291
I10
ag117
aa(lp292
I6
ag119
aa(lp293
I2
ag29
aa(lp294
I1
ag31
aa(lp295
I8
ag33
aa(lp296
I4
ag35
aaa(lp297
g2
ag95
ag97
ag99
ag100
ag288
ag289
ag290
ag291
ag292
a(lp298
I2
ag126
aa(lp299
I6
ag128
aa(lp300
I5
ag130
aa(lp301
I4
ag132
aaa(lp302
g2
ag95
ag97
ag99
ag100
ag101
ag102
ag103
ag104
ag105
ag106
a(lp303
I6
ag128
aa(lp304
I5
ag130
aa(lp305
I4
ag132
aaa(lp306
g2
ag95
ag97
ag99
ag100
ag101
ag102
ag103
ag104
ag105
a(lp307
I2
ag146
aa(lp308
I1
ag31
aa(lp309
I8
ag33
aa(lp310
I4
ag35
aaa(lp311
g2
ag95
ag97
ag99
ag100
ag101
ag102
ag113
ag114
ag115
ag116
a(lp312
I6
ag136
aa(lp313
I5
ag130
aa(lp314
I4
ag132
aaa(lp315
g2
ag95
ag97
ag99
a(lp316
I11
ag17
aa(lp317
I12
ag19
aa(lp318
I13
ag21
aa(lp319
I3
ag23
aa(lp320
I2
ag25
aa(lp321
I6
ag27
aa(lp322
I2
ag29
aa(lp323
I1
ag31
aa(lp324
I8
ag33
aa(lp325
I4
ag35
aaa(lp326
g2
ag95
ag97
ag99
ag316
a(lp327
I12
ag64
aa(lp328
I15
ag40
aa(lp329
I16
ag11
aa(lp330
I10
ag117
aa(lp331
I6
ag119
aa(lp332
I2
ag29
aa(lp333
I1
ag31
aa(lp334
I8
ag33
aa(lp335
I4
ag35
aaa(lp336
g2
ag95
ag97
ag99
ag316
ag327
ag328
ag329
ag330
ag331
a(lp337
I2
ag126
aa(lp338
I6
ag128
aa(lp339
I5
ag130
aa(lp340
I4
ag132
aaa(lp341
g2
ag95
a(lp342
I10
aS'on'
p343
aa(lp344
I6
ag119
aa(lp345
I2
ag29
aa(lp346
I1
ag206
aa(lp347
I7
ag15
aa(lp348
I11
ag45
aa(lp349
I14
ag47
aa(lp350
I11
ag49
aa(lp351
I12
ag64
aa(lp352
I15
ag199
aa(lp353
I8
ag201
aa(lp354
I4
ag35
aaa(lp355
g37
ag39
ag41
ag42
a(lp356
I7
ag69
aa(lp357
I3
ag71
aa(lp358
I2
ag25
aa(lp359
I6
ag128
aa(lp360
I5
ag138
aa(lp361
I9
ag5
aa(lp362
I14
ag61
aa(lp363
I11
ag49
aa(lp364
I12
ag19
aa(lp365
I13
aS'off'
p366
aaa(lp367
g37
ag39
ag41
ag42
ag43
ag44
ag46
ag48
ag50
ag51
ag52
ag169
ag170
a(lp368
I8
ag152
aaa(lp369
g37
ag39
ag41
ag42
ag43
ag174
ag175
ag176
ag177
ag178
ag179
ag180
ag181
a(lp370
I8
ag152
aaa(lp371
(lp372
I12
aS'on'
p373
aa(lp374
I13
ag21
aa(lp375
I3
ag23
aa(lp376
I2
ag25
aa(lp377
I6
ag128
aa(lp378
I5
ag138
aa(lp379
I9
ag96
aa(lp380
I10
ag98
aa(lp381
I7
ag15
aa(lp382
I11
ag45
aa(lp383
I14
ag82
aa(lp384
I15
ag246
aa(lp385
I8
ag201
aa(lp386
I4
ag35
aaa(lp387
g372
ag374
ag375
a(lp388
I2
ag146
aa(lp389
I1
ag206
aa(lp390
I7
ag15
aa(lp391
I11
ag45
aa(lp392
I14
ag82
aa(lp393
I15
ag9
aa(lp394
I16
ag11
aa(lp395
I10
ag117
aa(lp396
I6
ag136
aa(lp397
I5
ag130
aa(lp398
I4
ag132
aaa(lp399
g185
ag187
ag188
ag189
ag190
a(lp400
I9
ag5
aa(lp401
I14
ag61
aa(lp402
I11
ag49
aa(lp403
I12
ag64
aa(lp404
I15
ag40
aa(lp405
I16
ag11
aa(lp406
I10
ag13
aa(lp407
I7
ag69
aa(lp408
I3
aS'off'
p409
aaa(lp410
g185
ag187
ag188
ag189
ag190
ag400
ag401
a(lp411
I11
ag80
aa(lp412
I14
ag82
aa(lp413
I15
ag9
aa(lp414
I16
ag11
aa(lp415
I10
ag13
aa(lp416
I7
ag69
aa(lp417
I3
ag409
aaa(lp418
g185
ag187
ag188
ag189
ag190
ag400
a(lp419
I14
ag7
aa(lp420
I15
ag9
aa(lp421
I16
ag11
aa(lp422
I10
ag13
aa(lp423
I7
ag15
aa(lp424
I11
ag17
aa(lp425
I12
ag19
aa(lp426
I13
ag366
aaa(lp427
g185
ag187
ag188
ag189
ag190
ag191
ag192
ag193
ag194
ag195
ag196
ag197
ag198
a(lp428
I8
aS'on'
p429
aaa(lp430
g185
ag187
ag188
a(lp431
I6
ag27
aa(lp432
I2
ag29
aa(lp433
I1
ag206
aa(lp434
I7
ag15
aa(lp435
I11
ag45
aa(lp436
I14
ag47
aa(lp437
I11
ag49
aa(lp438
I12
ag64
aa(lp439
I15
ag199
aa(lp440
I8
ag201
aa(lp441
I4
ag35
aaa(lp442
g219
a(lp443
I10
ag117
aa(lp444
I6
ag136
aa(lp445
I5
ag138
aa(lp446
I9
ag5
aa(lp447
I14
ag61
aa(lp448
I11
ag49
aa(lp449
I12
ag19
aa(lp450
I13
ag21
aa(lp451
I3
ag23
aa(lp452
I2
ag146
aa(lp453
I1
ag31
aa(lp454
I8
ag33
aa(lp455
I4
ag35
aaa(lp456
g219
ag443
ag444
ag445
ag446
ag447
ag448
ag449
ag450
ag451
ag452
a(lp457
I1
ag206
aa(lp458
I7
ag69
aa(lp459
I3
ag409
aaa(lp460
g219
ag221
a(lp461
I7
ag69
aa(lp462
I3
ag71
aa(lp463
I2
ag25
aa(lp464
I6
ag128
aa(lp465
I5
ag138
aa(lp466
I9
ag5
aa(lp467
I14
ag61
aa(lp468
I11
ag49
aa(lp469
I12
ag64
aa(lp470
I15
ag199
aa(lp471
I8
ag201
aa(lp472
I4
ag35
aaa(lp473
g219
ag221
ag461
ag462
ag463
ag464
ag465
ag466
ag467
a(lp474
I11
ag80
aa(lp475
I14
ag82
aa(lp476
I15
ag246
aa(lp477
I8
ag201
aa(lp478
I4
ag35
aaa(lp479
g219
ag221
ag222
ag223
ag224
ag225
ag226
ag227
ag228
ag229
ag230
ag231
ag232
a(lp480
I8
ag152
aaa(lp481
g219
ag221
ag222
ag236
ag237
ag238
ag239
ag240
ag241
ag242
ag243
ag244
a(lp482
I15
ag9
aa(lp483
I16
aS'off'
p484
aaa(lp485
g219
ag221
ag222
ag236
ag237
ag238
ag239
ag240
ag241
ag242
ag243
ag244
ag245
a(lp486
I8
ag429
aaa(lp487
(lp488
I1
aS'off'
p489
aa(lp490
I7
ag15
aa(lp491
I11
ag45
aa(lp492
I14
ag47
aa(lp493
I11
ag49
aa(lp494
I12
ag19
aa(lp495
I13
ag21
aa(lp496
I3
ag23
aa(lp497
I2
ag25
aa(lp498
I6
ag27
aa(lp499
I2
ag29
aa(lp500
I1
ag31
aa(lp501
I8
ag152
aaa(lp502
g488
ag490
ag491
ag492
ag493
a(lp503
I12
ag64
aa(lp504
I15
ag40
aa(lp505
I16
ag11
aa(lp506
I10
ag117
aa(lp507
I6
ag119
aa(lp508
I2
ag29
aa(lp509
I1
ag31
aa(lp510
I8
ag152
aaa(lp511
g488
ag490
a(lp512
I11
ag17
aa(lp513
I12
ag19
aa(lp514
I13
ag21
aa(lp515
I3
ag23
aa(lp516
I2
ag25
aa(lp517
I6
ag128
aa(lp518
I5
ag138
aa(lp519
I9
ag5
aa(lp520
I14
ag7
aa(lp521
I15
ag9
aa(lp522
I16
ag484
aaa(lp523
g488
ag490
ag512
ag513
ag514
ag515
ag516
ag517
ag518
ag519
ag520
a(lp524
I15
ag246
aa(lp525
I8
ag429
aaa(lp526
g2
ag4
ag60
ag62
a(lp527
I12
ag19
aa(lp528
I13
ag21
aa(lp529
I3
ag23
aa(lp530
I2
ag25
aa(lp531
I6
ag27
aa(lp532
I2
ag29
aa(lp533
I1
ag31
aa(lp534
I8
ag33
aa(lp535
I4
ag35
aaa(lp536
g2
ag4
ag60
ag62
ag527
ag528
ag529
ag530
ag531
ag532
a(lp537
I1
ag206
aa(lp538
I7
ag69
aa(lp539
I3
ag409
aaa(lp540
g2
ag4
ag60
ag62
ag63
ag65
ag66
a(lp541
I10
ag117
aa(lp542
I6
ag119
aa(lp543
I2
ag29
aa(lp544
I1
ag31
aa(lp545
I8
ag33
aa(lp546
I4
ag35
aaa(lp547
g2
ag4
ag60
ag62
ag63
ag65
ag66
ag541
ag542
ag543
a(lp548
I1
ag206
aa(lp549
I7
ag69
aa(lp550
I3
ag409
aaa(lp551
g2
ag4
ag60
ag62
ag63
ag65
ag66
ag541
ag542
a(lp552
I2
ag126
aa(lp553
I6
ag128
aa(lp554
I5
ag130
aa(lp555
I4
ag132
aaa(lp556
g2
ag4
ag60
ag79
ag81
ag83
ag84
a(lp557
I10
ag117
aa(lp558
I6
ag119
aa(lp559
I2
ag29
aa(lp560
I1
ag31
aa(lp561
I8
ag33
aa(lp562
I4
ag35
aaa(lp563
g2
ag4
ag60
ag79
ag81
ag83
ag84
ag557
ag558
ag559
a(lp564
I1
ag206
aa(lp565
I7
ag69
aa(lp566
I3
ag409
aaa(lp567
g2
ag4
ag60
ag79
ag81
ag83
ag84
ag557
ag558
a(lp568
I2
ag126
aa(lp569
I6
ag128
aa(lp570
I5
ag130
aa(lp571
I4
ag132
aaa(lp572
g2
ag4
ag6
ag8
ag10
ag268
ag269
ag270
ag271
ag272
ag273
ag274
a(lp573
I13
ag366
aaa(lp574
g2
ag95
ag342
ag344
ag345
ag346
ag347
ag348
ag349
ag350
a(lp575
I12
ag19
aa(lp576
I13
ag21
aa(lp577
I3
ag277
aaa(lp578
g2
ag95
ag342
ag344
ag345
ag346
ag347
ag348
ag349
ag350
ag351
a(lp579
I15
ag40
aa(lp580
I16
ag484
aaa(lp581
g37
ag39
ag41
ag134
a(lp582
I6
ag119
aa(lp583
I2
ag29
aa(lp584
I1
ag206
aa(lp585
I7
ag15
aa(lp586
I11
ag45
aa(lp587
I14
ag47
aa(lp588
I11
ag49
aa(lp589
I12
ag19
aa(lp590
I13
ag366
aaa(lp591
g37
ag39
ag41
ag134
ag582
a(lp592
I2
ag126
aa(lp593
I6
ag128
aa(lp594
I5
ag138
aa(lp595
I9
ag5
aa(lp596
I14
ag61
aa(lp597
I11
ag49
aa(lp598
I12
ag19
aa(lp599
I13
ag366
aaa(lp600
g37
ag39
ag41
ag42
ag43
ag174
ag175
ag176
ag177
ag178
a(lp601
I6
ag128
aa(lp602
I5
ag130
aa(lp603
I4
ag132
aaa(lp604
g37
ag39
ag41
ag42
ag43
ag174
ag175
ag176
ag177
a(lp605
I2
ag146
aa(lp606
I1
ag31
aa(lp607
I8
ag33
aa(lp608
I4
ag35
aaa(lp609
g372
ag374
ag375
ag376
ag377
ag378
a(lp610
I9
ag5
aa(lp611
I14
ag61
aa(lp612
I11
ag80
aa(lp613
I14
ag82
aa(lp614
I15
ag246
aa(lp615
I8
ag201
aa(lp616
I4
ag35
aaa(lp617
g372
ag374
ag375
ag376
ag377
ag378
ag379
ag380
ag381
ag382
ag383
a(lp618
I15
ag9
aa(lp619
I16
ag484
aaa(lp620
g372
ag374
ag375
ag376
ag377
ag378
ag379
ag380
ag381
ag382
ag383
ag384
a(lp621
I8
ag429
aaa(lp622
g372
ag374
ag375
ag376
a(lp623
I6
ag27
aa(lp624
I2
ag29
aa(lp625
I1
ag206
aa(lp626
I7
ag15
aa(lp627
I11
ag45
aa(lp628
I14
ag82
aa(lp629
I15
ag246
aa(lp630
I8
ag201
aa(lp631
I4
ag35
aaa(lp632
g185
ag187
ag188
ag189
ag190
ag191
ag192
ag193
ag194
a(lp633
I14
ag82
aa(lp634
I15
ag246
aa(lp635
I8
ag201
aa(lp636
I4
ag35
aaa(lp637
g185
ag187
ag188
ag189
ag190
ag191
ag192
ag193
ag194
ag195
ag196
a(lp638
I12
ag19
aa(lp639
I13
ag366
aaa(lp640
g185
ag187
ag188
ag189
ag190
ag191
ag192
ag193
a(lp641
I11
ag17
aa(lp642
I12
ag64
aa(lp643
I15
ag199
aa(lp644
I8
ag201
aa(lp645
I4
ag35
aaa(lp646
g185
ag187
ag188
ag431
ag432
ag433
ag434
ag435
ag436
ag437
ag438
ag439
a(lp647
I8
ag429
aaa(lp648
g185
ag187
ag204
ag205
ag207
ag208
a(lp649
I14
ag82
aa(lp650
I15
ag9
aa(lp651
I16
ag11
aa(lp652
I10
ag117
aa(lp653
I6
ag136
aa(lp654
I5
ag130
aa(lp655
I4
ag132
aaa(lp656
g185
ag187
ag204
ag205
ag207
a(lp657
I11
ag17
aa(lp658
I12
ag64
aa(lp659
I15
ag40
aa(lp660
I16
ag11
aa(lp661
I10
ag117
aa(lp662
I6
ag136
aa(lp663
I5
ag130
aa(lp664
I4
ag132
aaa(lp665
g219
ag443
a(lp666
I6
ag119
aa(lp667
I2
ag29
aa(lp668
I1
ag206
aa(lp669
I7
ag15
aa(lp670
I11
ag45
aa(lp671
I14
ag47
aa(lp672
I11
ag49
aa(lp673
I12
ag64
aa(lp674
I15
ag199
aa(lp675
I8
ag201
aa(lp676
I4
ag35
aaa(lp677
g219
ag443
ag666
a(lp678
I2
ag126
aa(lp679
I6
ag128
aa(lp680
I5
ag138
aa(lp681
I9
ag5
aa(lp682
I14
ag61
aa(lp683
I11
ag49
aa(lp684
I12
ag64
aa(lp685
I15
ag199
aa(lp686
I8
ag201
aa(lp687
I4
ag35
aaa(lp688
g219
ag443
ag666
ag678
ag679
ag680
ag681
ag682
a(lp689
I11
ag80
aa(lp690
I14
ag82
aa(lp691
I15
ag246
aa(lp692
I8
ag201
aa(lp693
I4
ag35
aaa(lp694
g219
ag443
ag444
ag445
ag446
ag447
ag448
ag449
ag450
ag451
ag452
ag453
a(lp695
I8
ag152
aaa(lp696
g219
ag221
ag461
ag462
ag463
ag464
ag465
ag466
ag467
ag468
ag469
ag470
a(lp697
I8
ag429
aaa(lp698
g219
ag221
ag461
ag462
ag463
ag464
ag465
ag466
ag467
ag468
ag469
a(lp699
I15
ag40
aa(lp700
I16
ag484
aaa(lp701
g219
ag221
ag461
ag462
ag463
ag464
ag465
ag466
ag467
ag474
ag475
a(lp702
I15
ag9
aa(lp703
I16
ag484
aaa(lp704
g219
ag221
ag461
ag462
ag463
ag464
ag465
ag466
ag467
ag474
ag475
ag476
a(lp705
I8
ag429
aaa(lp706
g219
ag221
ag222
ag223
ag224
ag225
ag226
ag227
ag228
ag229
a(lp707
I6
ag128
aa(lp708
I5
ag130
aa(lp709
I4
ag132
aaa(lp710
g219
ag221
ag222
ag223
ag224
ag225
ag226
ag227
ag228
a(lp711
I2
ag146
aa(lp712
I1
ag31
aa(lp713
I8
ag33
aa(lp714
I4
ag35
aaa(lp715
g219
ag221
ag222
ag236
ag237
ag238
ag239
ag240
a(lp716
I6
ag27
aa(lp717
I2
ag29
aa(lp718
I1
ag31
aa(lp719
I8
ag33
aa(lp720
I4
ag35
aaa(lp721
g488
a(lp722
I7
ag69
aa(lp723
I3
ag71
aa(lp724
I2
ag25
aa(lp725
I6
ag128
aa(lp726
I5
ag138
aa(lp727
I9
ag5
aa(lp728
I14
ag61
aa(lp729
I11
ag49
aa(lp730
I12
ag64
aa(lp731
I15
ag199
aa(lp732
I8
ag429
aaa(lp733
g488
ag722
ag723
ag724
ag725
ag726
ag727
ag728
ag729
ag730
a(lp734
I15
ag40
aa(lp735
I16
ag484
aaa(lp736
g488
ag722
ag723
ag724
ag725
ag726
ag727
ag728
a(lp737
I11
ag80
aa(lp738
I14
ag82
aa(lp739
I15
ag9
aa(lp740
I16
ag484
aaa(lp741
g488
ag722
ag723
ag724
ag725
ag726
ag727
ag728
ag737
ag738
a(lp742
I15
ag246
aa(lp743
I8
ag429
aaa(lp744
g2
ag4
ag6
ag8
ag10
ag12
ag279
ag280
ag281
a(lp745
I6
ag128
aa(lp746
I5
ag130
aa(lp747
I4
ag132
aaa(lp748
g2
ag4
ag6
ag8
ag10
ag12
ag279
ag280
a(lp749
I2
ag146
aa(lp750
I1
ag31
aa(lp751
I8
ag33
aa(lp752
I4
ag35
aaa(lp753
g2
ag95
ag97
ag99
ag100
ag288
ag289
ag290
ag291
a(lp754
I6
ag136
aa(lp755
I5
ag130
aa(lp756
I4
ag132
aaa(lp757
g2
ag95
ag97
ag99
ag316
ag317
ag318
ag319
ag320
a(lp758
I6
ag128
aa(lp759
I5
ag130
aa(lp760
I4
ag132
aaa(lp761
g2
ag95
ag97
ag99
ag316
ag317
ag318
ag319
a(lp762
I2
ag146
aa(lp763
I1
ag31
aa(lp764
I8
ag33
aa(lp765
I4
ag35
aaa(lp766
g2
ag95
ag97
ag99
ag316
ag327
ag328
ag329
ag330
a(lp767
I6
ag136
aa(lp768
I5
ag130
aa(lp769
I4
ag132
aaa(lp770
g2
ag95
ag342
ag344
ag345
ag346
ag347
ag348
a(lp771
I14
ag82
aa(lp772
I15
ag246
aa(lp773
I8
ag201
aa(lp774
I4
ag35
aaa(lp775
g2
ag95
ag342
ag344
ag345
ag346
ag347
ag348
ag349
ag350
ag575
a(lp776
I13
ag366
aaa(lp777
g2
ag95
ag342
ag344
ag345
ag346
ag347
a(lp778
I11
ag17
aa(lp779
I12
ag64
aa(lp780
I15
ag199
aa(lp781
I8
ag201
aa(lp782
I4
ag35
aaa(lp783
g37
ag39
ag41
ag42
ag356
ag357
ag358
a(lp784
I6
ag27
aa(lp785
I2
ag29
aa(lp786
I1
ag31
aa(lp787
I8
ag33
aa(lp788
I4
ag35
aaa(lp789
g37
ag39
ag41
ag42
ag43
ag174
ag175
ag176
ag177
ag605
ag606
a(lp790
I8
ag152
aaa(lp791
g372
ag374
ag375
ag376
ag377
ag378
ag610
ag611
ag612
ag613
a(lp792
I15
ag9
aa(lp793
I16
ag484
aaa(lp794
g372
ag374
ag375
ag376
ag377
ag378
ag610
ag611
ag612
ag613
ag614
a(lp795
I8
ag429
aaa(lp796
g372
ag374
ag375
ag376
ag623
ag624
ag625
ag626
ag627
ag628
a(lp797
I15
ag9
aa(lp798
I16
ag484
aaa(lp799
g372
ag374
ag375
ag376
ag623
ag624
ag625
ag626
ag627
ag628
ag629
a(lp800
I8
ag429
aaa(lp801
g185
ag187
ag188
ag189
ag190
ag400
ag401
ag402
ag403
a(lp802
I15
ag199
aa(lp803
I8
ag201
aa(lp804
I4
ag35
aaa(lp805
g185
ag187
ag188
ag189
ag190
ag400
ag401
ag411
ag412
a(lp806
I15
ag246
aa(lp807
I8
ag201
aa(lp808
I4
ag35
aaa(lp809
g185
ag187
ag188
ag189
ag190
ag400
ag419
ag420
ag421
ag422
a(lp810
I7
ag69
aa(lp811
I3
ag409
aaa(lp812
g185
ag187
ag188
ag189
ag190
ag191
ag192
ag193
ag194
ag633
ag634
a(lp813
I8
ag429
aaa(lp814
g185
ag187
ag188
ag189
ag190
ag191
ag192
ag193
ag641
ag642
ag643
a(lp815
I8
ag429
aaa(lp816
g185
ag187
ag188
ag431
ag432
ag433
ag434
ag435
a(lp817
I14
ag82
aa(lp818
I15
ag246
aa(lp819
I8
ag201
aa(lp820
I4
ag35
aaa(lp821
g185
ag187
ag188
ag431
ag432
ag433
ag434
ag435
ag436
ag437
a(lp822
I12
ag19
aa(lp823
I13
ag366
aaa(lp824
g185
ag187
ag188
ag431
ag432
ag433
ag434
a(lp825
I11
ag17
aa(lp826
I12
ag64
aa(lp827
I15
ag199
aa(lp828
I8
ag201
aa(lp829
I4
ag35
aaa(lp830
g185
ag187
ag204
ag205
ag207
ag208
ag209
ag210
ag211
a(lp831
I15
ag199
aa(lp832
I8
ag201
aa(lp833
I4
ag35
aaa(lp834
g219
ag443
ag666
ag667
ag668
ag669
ag670
ag671
ag672
a(lp835
I12
ag19
aa(lp836
I13
ag21
aa(lp837
I3
ag277
aaa(lp838
g219
ag443
ag666
ag667
ag668
ag669
ag670
ag671
ag672
ag673
ag674
a(lp839
I8
ag429
aaa(lp840
g219
ag443
ag666
ag667
ag668
ag669
ag670
ag671
ag672
ag673
a(lp841
I15
ag40
aa(lp842
I16
ag484
aaa(lp843
g219
ag443
ag666
ag678
ag679
ag680
ag681
ag682
ag683
a(lp844
I12
ag19
aa(lp845
I13
ag21
aa(lp846
I3
ag277
aaa(lp847
g219
ag443
ag666
ag678
ag679
ag680
ag681
ag682
ag683
ag684
ag685
a(lp848
I8
ag429
aaa(lp849
g219
ag443
ag666
ag678
ag679
ag680
ag681
ag682
ag683
ag684
a(lp850
I15
ag40
aa(lp851
I16
ag484
aaa(lp852
g219
ag443
ag666
ag678
ag679
ag680
ag681
ag682
ag689
ag690
a(lp853
I15
ag9
aa(lp854
I16
ag484
aaa(lp855
g219
ag443
ag666
ag678
ag679
ag680
ag681
ag682
ag689
ag690
ag691
a(lp856
I8
ag429
aaa(lp857
g219
ag221
ag461
ag462
ag463
ag464
ag465
ag466
a(lp858
I14
ag7
aa(lp859
I15
ag246
aa(lp860
I8
ag201
aa(lp861
I4
ag35
aaa(lp862
g219
ag221
ag222
ag223
ag224
ag225
ag226
ag227
ag228
ag711
ag712
a(lp863
I8
ag152
aaa(lp864
g219
ag221
ag222
ag236
ag237
ag238
ag239
ag240
ag716
ag717
ag718
a(lp865
I8
ag152
aaa(lp866
g488
ag722
ag723
ag724
ag725
ag726
ag727
ag728
ag729
a(lp867
I12
ag19
aa(lp868
I13
ag366
aaa(lp869
g488
ag490
ag491
a(lp870
I14
ag82
aa(lp871
I15
ag9
aa(lp872
I16
ag11
aa(lp873
I10
ag117
aa(lp874
I6
ag119
aa(lp875
I2
ag29
aa(lp876
I1
ag31
aa(lp877
I8
ag152
aaa(lp878
g488
ag490
ag491
ag492
ag493
ag494
ag495
ag496
a(lp879
I2
ag146
aa(lp880
I1
ag31
aa(lp881
I8
ag152
aaa(lp882
g488
ag490
ag512
ag513
ag514
ag515
ag516
a(lp883
I6
ag27
aa(lp884
I2
ag29
aa(lp885
I1
ag31
aa(lp886
I8
ag152
aaa(lp887
g488
ag490
ag512
a(lp888
I12
ag64
aa(lp889
I15
ag40
aa(lp890
I16
ag11
aa(lp891
I10
ag117
aa(lp892
I6
ag119
aa(lp893
I2
ag29
aa(lp894
I1
ag31
aa(lp895
I8
ag152
aaa(lp896
g2
ag4
ag60
ag62
ag527
ag528
ag529
ag530
a(lp897
I6
ag128
aa(lp898
I5
ag130
aa(lp899
I4
ag132
aaa(lp900
g2
ag4
ag60
ag62
ag527
ag528
ag529
a(lp901
I2
ag146
aa(lp902
I1
ag31
aa(lp903
I8
ag33
aa(lp904
I4
ag35
aaa(lp905
g2
ag4
ag60
ag62
ag527
ag528
ag529
ag901
a(lp906
I1
ag206
aa(lp907
I7
ag69
aa(lp908
I3
ag409
aaa(lp909
g2
ag4
ag60
ag62
ag63
ag65
ag66
ag541
a(lp910
I6
ag136
aa(lp911
I5
ag130
aa(lp912
I4
ag132
aaa(lp913
g2
ag4
ag60
ag79
ag81
ag83
ag84
ag557
a(lp914
I6
ag136
aa(lp915
I5
ag130
aa(lp916
I4
ag132
aaa(lp917
g2
ag4
ag6
ag8
ag10
ag268
ag269
ag270
a(lp918
I1
ag31
aa(lp919
I8
ag33
aa(lp920
I4
ag35
aaa(lp921
g2
ag4
ag6
ag8
ag10
ag268
ag269
ag270
ag271
a(lp922
I7
ag69
aa(lp923
I3
ag409
aaa(lp924
g2
ag4
ag6
ag8
ag10
ag268
ag269
a(lp925
I2
ag126
aa(lp926
I6
ag128
aa(lp927
I5
ag130
aa(lp928
I4
ag132
aaa(lp929
g2
ag4
ag6
ag8
ag10
ag12
ag14
ag16
ag18
ag20
a(lp930
I3
ag277
aaa(lp931
g2
ag95
ag97
a(lp932
I7
ag69
aa(lp933
I3
ag71
aa(lp934
I2
ag25
aa(lp935
I6
ag27
aa(lp936
I2
ag29
aa(lp937
I1
ag31
aa(lp938
I8
ag33
aa(lp939
I4
ag35
aaa(lp940
g2
ag95
ag97
ag99
ag100
ag101
ag102
ag113
a(lp941
I15
ag199
aa(lp942
I8
ag201
aa(lp943
I4
ag35
aaa(lp944
g2
ag95
ag342
ag344
ag345
ag346
ag347
ag348
ag771
a(lp945
I15
ag9
aa(lp946
I16
ag484
aaa(lp947
g2
ag95
ag342
ag344
ag345
ag346
ag347
ag778
a(lp948
I12
ag19
aa(lp949
I13
ag21
aa(lp950
I3
ag277
aaa(lp951
g2
ag95
ag342
ag344
ag345
ag346
ag347
ag778
ag779
a(lp952
I15
ag40
aa(lp953
I16
ag484
aaa(lp954
g37
ag39
ag41
ag134
ag582
ag583
ag584
ag585
a(lp955
I11
ag17
aa(lp956
I12
ag19
aa(lp957
I13
ag366
aaa(lp958
g37
ag39
ag41
ag134
ag135
ag137
ag139
ag140
ag141
ag142
a(lp959
I13
ag366
aaa(lp960
g37
ag39
ag41
ag42
ag356
ag357
ag358
ag784
ag785
ag786
a(lp961
I8
ag152
aaa(lp962
g372
ag374
ag375
ag376
ag377
ag378
ag610
a(lp963
I14
ag7
aa(lp964
I15
ag246
aa(lp965
I8
ag201
aa(lp966
I4
ag35
aaa(lp967
g372
ag374
ag375
ag388
ag389
ag390
ag391
ag392
a(lp968
I15
ag246
aa(lp969
I8
ag201
aa(lp970
I4
ag35
aaa(lp971
g185
ag187
ag188
ag189
ag190
ag400
ag401
ag402
ag403
ag802
a(lp972
I8
ag429
aaa(lp973
g185
ag187
ag188
ag189
ag190
ag400
ag401
ag411
ag412
ag806
a(lp974
I8
ag429
aaa(lp975
g185
ag187
ag188
ag189
ag190
ag191
ag192
ag193
ag641
a(lp976
I12
ag19
aa(lp977
I13
ag366
aaa(lp978
g185
ag187
ag188
ag431
ag432
ag433
ag434
ag435
ag817
ag818
a(lp979
I8
ag429
aaa(lp980
g185
ag187
ag188
ag431
ag432
ag433
ag434
ag825
ag826
ag827
a(lp981
I8
ag429
aaa(lp982
g185
ag187
ag204
ag205
ag207
ag208
ag209
ag210
ag211
ag831
a(lp983
I8
ag429
aaa(lp984
g219
ag443
ag666
ag667
ag668
ag669
ag670
a(lp985
I14
ag82
aa(lp986
I15
ag246
aa(lp987
I8
ag201
aa(lp988
I4
ag35
aaa(lp989
g219
ag443
ag666
ag667
ag668
ag669
a(lp990
I11
ag17
aa(lp991
I12
ag64
aa(lp992
I15
ag199
aa(lp993
I8
ag201
aa(lp994
I4
ag35
aaa(lp995
g219
ag443
ag666
ag678
ag679
ag680
ag681
a(lp996
I14
ag7
aa(lp997
I15
ag246
aa(lp998
I8
ag201
aa(lp999
I4
ag35
aaa(lp1000
g219
ag443
ag444
ag445
ag446
ag447
ag448
a(lp1001
I12
ag64
aa(lp1002
I15
ag199
aa(lp1003
I8
ag201
aa(lp1004
I4
ag35
aaa(lp1005
g219
ag443
ag444
ag445
ag446
ag447
a(lp1006
I11
ag80
aa(lp1007
I14
ag82
aa(lp1008
I15
ag246
aa(lp1009
I8
ag201
aa(lp1010
I4
ag35
aaa(lp1011
g219
ag221
ag461
ag462
ag463
ag464
ag465
ag466
ag858
a(lp1012
I15
ag9
aa(lp1013
I16
ag484
aaa(lp1014
g219
ag221
ag461
ag462
ag463
ag464
ag465
ag466
ag858
ag859
a(lp1015
I8
ag429
aaa(lp1016
g219
ag221
ag222
ag236
ag237
ag238
ag239
ag240
ag241
a(lp1017
I5
ag130
aa(lp1018
I4
ag132
aaa(lp1019
g219
ag221
ag222
ag236
ag237
ag238
ag239
a(lp1020
I2
ag146
aa(lp1021
I1
ag31
aa(lp1022
I8
ag33
aa(lp1023
I4
ag35
aaa(lp1024
g488
ag722
ag723
ag724
ag725
ag726
ag727
a(lp1025
I14
ag7
aa(lp1026
I15
ag9
aa(lp1027
I16
ag484
aaa(lp1028
g488
ag722
ag723
ag724
ag725
ag726
ag727
ag1025
a(lp1029
I15
ag246
aa(lp1030
I8
ag429
aaa(lp1031
g2
ag4
ag60
ag62
ag63
ag65
ag66
ag67
ag68
a(lp1032
I3
ag409
aaa(lp1033
g2
ag4
ag60
ag79
ag81
ag83
ag84
ag85
ag86
a(lp1034
I3
ag409
aaa(lp1035
g2
ag4
ag6
ag8
ag10
ag12
ag14
ag16
ag18
a(lp1036
I13
ag366
aaa(lp1037
g2
ag95
ag97
ag99
ag100
ag101
ag102
ag103
ag104
a(lp1038
I3
ag277
aaa(lp1039
g2
ag95
ag97
ag99
ag100
ag101
ag102
ag113
ag114
a(lp1040
I16
ag484
aaa(lp1041
g2
ag95
ag342
ag344
ag345
ag346
ag347
ag778
ag948
a(lp1042
I13
ag366
aaa(lp1043
g37
ag39
ag41
ag42
ag356
ag357
ag358
ag359
a(lp1044
I5
ag130
aa(lp1045
I4
ag132
aaa(lp1046
g37
ag39
ag41
ag42
ag356
ag357
a(lp1047
I2
ag146
aa(lp1048
I1
ag31
aa(lp1049
I8
ag33
aa(lp1050
I4
ag35
aaa(lp1051
g37
ag39
ag41
ag42
ag43
ag44
ag46
ag48
ag50
a(lp1052
I13
ag366
aaa(lp1053
g372
ag374
ag375
ag376
ag377
ag378
ag610
ag963
a(lp1054
I15
ag9
aa(lp1055
I16
ag484
aaa(lp1056
g372
ag374
ag375
ag376
ag377
ag378
ag610
ag963
ag964
a(lp1057
I8
ag429
aaa(lp1058
g372
ag374
ag375
ag388
ag389
ag390
ag391
ag392
ag393
a(lp1059
I16
ag484
aaa(lp1060
g372
ag374
ag375
ag388
ag389
ag390
ag391
ag392
ag968
a(lp1061
I8
ag429
aaa(lp1062
g185
ag187
ag188
ag189
ag190
ag400
ag401
ag402
a(lp1063
I12
ag19
aa(lp1064
I13
ag366
aaa(lp1065
g185
ag187
ag188
ag189
ag190
ag400
ag419
a(lp1066
I15
ag246
aa(lp1067
I8
ag201
aa(lp1068
I4
ag35
aaa(lp1069
g185
ag187
ag188
ag431
ag432
ag433
ag434
ag825
a(lp1070
I12
ag19
aa(lp1071
I13
ag366
aaa(lp1072
g185
ag187
ag204
ag205
ag207
ag208
ag649
a(lp1073
I15
ag246
aa(lp1074
I8
ag201
aa(lp1075
I4
ag35
aaa(lp1076
g185
ag187
ag204
ag205
ag207
ag208
ag209
ag210
a(lp1077
I12
ag19
aa(lp1078
I13
ag366
aaa(lp1079
g185
ag187
ag204
ag205
ag207
ag657
ag658
a(lp1080
I15
ag199
aa(lp1081
I8
ag201
aa(lp1082
I4
ag35
aaa(lp1083
g219
ag443
ag666
ag667
ag668
ag669
ag670
ag985
a(lp1084
I15
ag9
aa(lp1085
I16
ag484
aaa(lp1086
g219
ag443
ag666
ag667
ag668
ag669
ag670
ag985
ag986
a(lp1087
I8
ag429
aaa(lp1088
g219
ag443
ag666
ag667
ag668
ag669
ag990
a(lp1089
I12
ag19
aa(lp1090
I13
ag21
aa(lp1091
I3
ag277
aaa(lp1092
g219
ag443
ag666
ag667
ag668
ag669
ag990
ag991
ag992
a(lp1093
I8
ag429
aaa(lp1094
g219
ag443
ag666
ag667
ag668
ag669
ag990
ag991
a(lp1095
I15
ag40
aa(lp1096
I16
ag484
aaa(lp1097
g219
ag443
ag666
ag678
ag679
ag680
ag681
ag996
a(lp1098
I15
ag9
aa(lp1099
I16
ag484
aaa(lp1100
g219
ag443
ag666
ag678
ag679
ag680
ag681
ag996
ag997
a(lp1101
I8
ag429
aaa(lp1102
g219
ag443
ag444
ag445
ag446
ag447
ag448
ag449
ag450
a(lp1103
I3
ag277
aaa(lp1104
g219
ag443
ag444
ag445
ag446
ag447
ag448
ag1001
ag1002
a(lp1105
I8
ag429
aaa(lp1106
g219
ag443
ag444
ag445
ag446
ag447
ag448
ag1001
a(lp1107
I15
ag40
aa(lp1108
I16
ag484
aaa(lp1109
g219
ag443
ag444
ag445
ag446
ag447
ag1006
ag1007
a(lp1110
I15
ag9
aa(lp1111
I16
ag484
aaa(lp1112
g219
ag443
ag444
ag445
ag446
ag447
ag1006
ag1007
ag1008
a(lp1113
I8
ag429
aaa(lp1114
g219
ag221
ag461
ag462
ag463
a(lp1115
I6
ag27
aa(lp1116
I2
ag29
aa(lp1117
I1
ag31
aa(lp1118
I8
ag33
aa(lp1119
I4
ag35
aaa(lp1120
g219
ag221
ag222
ag223
ag224
ag225
a(lp1121
I12
ag64
aa(lp1122
I15
ag199
aa(lp1123
I8
ag201
aa(lp1124
I4
ag35
aaa(lp1125
g219
ag221
ag222
ag236
ag237
ag238
ag239
ag1020
ag1021
a(lp1126
I8
ag152
aaa(lp1127
g488
ag490
ag512
ag513
ag514
ag515
a(lp1128
I2
ag146
aa(lp1129
I1
ag31
aa(lp1130
I8
ag152
aaa(lp1131
g2
ag4
ag6
ag8
ag10
ag268
a(lp1132
I6
ag136
aa(lp1133
I5
ag130
aa(lp1134
I4
ag132
aaa(lp1135
g2
ag95
ag97
ag932
ag933
ag934
a(lp1136
I6
ag128
aa(lp1137
I5
ag130
aa(lp1138
I4
ag132
aaa(lp1139
g2
ag95
ag97
ag932
ag933
a(lp1140
I2
ag146
aa(lp1141
I1
ag31
aa(lp1142
I8
ag33
aa(lp1143
I4
ag35
aaa(lp1144
g2
ag95
ag97
ag99
ag100
ag288
a(lp1145
I15
ag246
aa(lp1146
I8
ag201
aa(lp1147
I4
ag35
aaa(lp1148
g2
ag95
ag97
ag99
ag100
ag101
ag102
ag103
a(lp1149
I13
ag366
aaa(lp1150
g2
ag95
ag97
ag99
ag316
ag327
a(lp1151
I15
ag199
aa(lp1152
I8
ag201
aa(lp1153
I4
ag35
aaa(lp1154
g37
ag39
ag41
ag134
ag582
ag583
a(lp1155
I1
ag31
aa(lp1156
I8
ag33
aa(lp1157
I4
ag35
aaa(lp1158
g37
ag39
ag41
ag134
ag582
ag592
ag593
a(lp1159
I5
ag130
aa(lp1160
I4
ag132
aaa(lp1161
g37
ag39
ag41
ag42
ag356
ag357
ag1047
ag1048
a(lp1162
I8
ag152
aaa(lp1163
g372
ag374
ag375
ag376
ag623
ag624
a(lp1164
I1
ag31
aa(lp1165
I8
ag33
aa(lp1166
I4
ag35
aaa(lp1167
g185
ag187
ag188
ag189
ag190
ag400
ag419
ag1066
a(lp1168
I8
ag429
aaa(lp1169
g185
ag187
ag188
ag189
ag190
ag191
ag192
a(lp1170
I7
ag69
aa(lp1171
I3
ag409
aaa(lp1172
g185
ag187
ag204
ag205
ag207
ag208
ag649
ag1073
a(lp1173
I8
ag429
aaa(lp1174
g185
ag187
ag204
ag205
ag207
ag657
ag658
ag1080
a(lp1175
I8
ag429
aaa(lp1176
g219
ag443
ag444
ag445
ag446
a(lp1177
I14
ag7
aa(lp1178
I15
ag246
aa(lp1179
I8
ag201
aa(lp1180
I4
ag35
aaa(lp1181
g219
ag221
ag461
ag462
ag463
ag1115
ag1116
ag1117
a(lp1182
I8
ag152
aaa(lp1183
g219
ag221
ag222
ag223
ag224
ag225
ag226
ag227
a(lp1184
I3
ag277
aaa(lp1185
g219
ag221
ag222
ag223
ag224
ag225
ag1121
ag1122
a(lp1186
I8
ag429
aaa(lp1187
g219
ag221
ag222
ag223
ag224
ag225
ag1121
a(lp1188
I15
ag40
aa(lp1189
I16
ag484
aaa(lp1190
g488
ag722
ag723
ag724
a(lp1191
I6
ag27
aa(lp1192
I2
ag29
aa(lp1193
I1
ag31
aa(lp1194
I8
ag152
aaa(lp1195
g488
ag490
ag491
ag492
ag493
ag494
ag495
a(lp1196
I3
ag277
aaa(lp1197
g488
ag490
ag491
ag492
ag493
ag503
a(lp1198
I15
ag199
aa(lp1199
I8
ag429
aaa(lp1200
g488
ag490
ag491
ag492
ag493
ag503
ag504
a(lp1201
I16
ag484
aaa(lp1202
g2
ag4
ag60
ag62
ag63
a(lp1203
I15
ag199
aa(lp1204
I8
ag201
aa(lp1205
I4
ag35
aaa(lp1206
g2
ag4
ag60
ag79
ag81
a(lp1207
I15
ag246
aa(lp1208
I8
ag201
aa(lp1209
I4
ag35
aaa(lp1210
g2
ag4
ag6
ag8
ag10
ag12
ag279
a(lp1211
I3
ag409
aaa(lp1212
g2
ag95
ag97
ag99
ag100
ag288
ag289
a(lp1213
I16
ag484
aaa(lp1214
g2
ag95
ag97
ag99
ag316
ag317
ag318
a(lp1215
I3
ag277
aaa(lp1216
g2
ag95
ag97
ag99
ag316
ag327
ag328
a(lp1217
I16
ag484
aaa(lp1218
g2
ag95
ag342
ag344
ag345
a(lp1219
I1
ag31
aa(lp1220
I8
ag33
aa(lp1221
I4
ag35
aaa(lp1222
g2
ag95
ag342
ag344
ag345
ag346
a(lp1223
I7
ag69
aa(lp1224
I3
ag409
aaa(lp1225
g2
ag95
ag342
ag344
a(lp1226
I2
ag126
aa(lp1227
I6
ag128
aa(lp1228
I5
ag130
aa(lp1229
I4
ag132
aaa(lp1230
g37
ag39
ag41
ag134
ag582
ag583
ag1155
a(lp1231
I8
ag152
aaa(lp1232
g37
ag39
ag41
ag42
ag43
ag174
ag175
a(lp1233
I13
ag366
aaa(lp1234
g372
ag374
ag375
ag376
ag623
ag624
ag1164
a(lp1235
I8
ag152
aaa(lp1236
g185
ag187
ag188
ag431
ag432
a(lp1237
I1
ag31
aa(lp1238
I8
ag33
aa(lp1239
I4
ag35
aaa(lp1240
g185
ag187
ag188
ag431
ag432
ag433
a(lp1241
I7
ag69
aa(lp1242
I3
ag409
aaa(lp1243
g185
ag187
ag204
ag205
ag207
ag657
a(lp1244
I12
ag19
aa(lp1245
I13
ag366
aaa(lp1246
g219
ag443
ag444
ag445
ag446
ag1177
a(lp1247
I15
ag9
aa(lp1248
I16
ag484
aaa(lp1249
g219
ag443
ag444
ag445
ag446
ag1177
ag1178
a(lp1250
I8
ag429
aaa(lp1251
g219
ag221
ag461
ag462
ag463
ag464
a(lp1252
I5
ag130
aa(lp1253
I4
ag132
aaa(lp1254
g219
ag221
ag461
ag462
a(lp1255
I2
ag146
aa(lp1256
I1
ag31
aa(lp1257
I8
ag33
aa(lp1258
I4
ag35
aaa(lp1259
g219
ag221
ag222
ag223
a(lp1260
I14
ag82
aa(lp1261
I15
ag246
aa(lp1262
I8
ag201
aa(lp1263
I4
ag35
aaa(lp1264
g219
ag221
ag222
ag236
a(lp1265
I12
ag64
aa(lp1266
I15
ag199
aa(lp1267
I8
ag201
aa(lp1268
I4
ag35
aaa(lp1269
g488
ag490
ag491
ag492
ag493
ag494
a(lp1270
I13
ag366
aaa(lp1271
g2
ag4
ag60
ag62
ag527
ag528
a(lp1272
I3
ag277
aaa(lp1273
g2
ag4
ag60
ag62
ag63
ag65
a(lp1274
I16
ag484
aaa(lp1275
g2
ag4
ag60
ag79
ag81
ag83
a(lp1276
I16
ag484
aaa(lp1277
g2
ag95
ag97
ag99
ag316
ag317
a(lp1278
I13
ag366
aaa(lp1279
g37
ag39
ag41
ag134
ag135
a(lp1280
I5
ag130
aa(lp1281
I4
ag132
aaa(lp1282
g372
ag374
ag375
ag376
ag377
a(lp1283
I5
ag130
aa(lp1284
I4
ag132
aaa(lp1285
g372
ag374
ag375
ag388
a(lp1286
I1
ag31
aa(lp1287
I8
ag33
aa(lp1288
I4
ag35
aaa(lp1289
g185
ag187
ag188
ag431
ag432
ag1237
a(lp1290
I8
ag152
aaa(lp1291
g219
ag443
ag666
ag667
a(lp1292
I1
ag31
aa(lp1293
I8
ag33
aa(lp1294
I4
ag35
aaa(lp1295
g219
ag443
ag666
ag667
ag668
a(lp1296
I7
ag69
aa(lp1297
I3
ag409
aaa(lp1298
g219
ag443
ag666
ag678
ag679
a(lp1299
I5
ag130
aa(lp1300
I4
ag132
aaa(lp1301
g219
ag221
ag461
ag462
ag1255
ag1256
a(lp1302
I8
ag152
aaa(lp1303
g219
ag221
ag222
ag223
ag1260
a(lp1304
I15
ag9
aa(lp1305
I16
ag484
aaa(lp1306
g219
ag221
ag222
ag223
ag1260
ag1261
a(lp1307
I8
ag429
aaa(lp1308
g219
ag221
ag222
ag236
ag237
ag238
a(lp1309
I3
ag277
aaa(lp1310
g219
ag221
ag222
ag236
ag1265
ag1266
a(lp1311
I8
ag429
aaa(lp1312
g219
ag221
ag222
ag236
ag1265
a(lp1313
I15
ag40
aa(lp1314
I16
ag484
aaa(lp1315
g488
ag722
ag723
a(lp1316
I2
ag146
aa(lp1317
I1
ag31
aa(lp1318
I8
ag152
aaa(lp1319
g488
ag490
ag491
ag870
ag871
a(lp1320
I16
ag484
aaa(lp1321
g488
ag490
ag491
ag870
a(lp1322
I15
ag246
aa(lp1323
I8
ag429
aaa(lp1324
g488
ag490
ag512
ag513
ag514
a(lp1325
I3
ag277
aaa(lp1326
g488
ag490
ag512
ag888
a(lp1327
I15
ag199
aa(lp1328
I8
ag429
aaa(lp1329
g488
ag490
ag512
ag888
ag889
a(lp1330
I16
ag484
aaa(lp1331
g2
ag4
ag60
ag62
ag527
a(lp1332
I13
ag366
aaa(lp1333
g2
ag4
ag6
a(lp1334
I15
ag246
aa(lp1335
I8
ag201
aa(lp1336
I4
ag35
aaa(lp1337
g2
ag95
ag342
a(lp1338
I6
ag136
aa(lp1339
I5
ag130
aa(lp1340
I4
ag132
aaa(lp1341
g372
ag374
ag375
ag388
ag1286
a(lp1342
I8
ag152
aaa(lp1343
g185
ag187
ag188
ag189
a(lp1344
I5
ag130
aa(lp1345
I4
ag132
aaa(lp1346
g185
ag187
ag204
a(lp1347
I1
ag31
aa(lp1348
I8
ag33
aa(lp1349
I4
ag35
aaa(lp1350
g185
ag187
ag204
ag205
a(lp1351
I7
ag69
aa(lp1352
I3
ag409
aaa(lp1353
g219
ag443
ag666
ag667
ag1292
a(lp1354
I8
ag152
aaa(lp1355
g488
ag490
ag512
ag513
a(lp1356
I13
ag366
aaa(lp1357
g2
ag4
ag6
ag8
a(lp1358
I16
ag484
aaa(lp1359
g2
ag95
ag97
ag932
a(lp1360
I3
ag409
aaa(lp1361
g185
ag187
ag204
ag1347
a(lp1362
I8
ag152
aaa(lp1363
g219
ag443
ag444
a(lp1364
I5
ag130
aa(lp1365
I4
ag132
aaa(lp1366
g37
a(lp1367
I15
ag199
aa(lp1368
I8
ag201
aa(lp1369
I4
ag35
aaa(lp1370
g219
ag221
ag461
a(lp1371
I3
ag409
aaa(lp1372
g488
ag722
a(lp1373
I3
ag409
aaa(lp1374
g37
ag1367
a(lp1375
I8
ag429
aaa(lp1376
g37
ag39
a(lp1377
I16
ag484
aaa(lp1378
(lp1379
I1
aS'on'
p1380
aa(lp1381
I8
ag152
aaa(lp1382
(lp1383
I5
aS'on'
p1384
aa(lp1385
I4
ag132
aaa(lp1386
g372
a(lp1387
I13
ag366
aaa(lp1388
g185
a(lp1389
I3
ag277
aaa(lp1390
(lp1391
I13
aS'on'
p1392
aaa(lp1393
(lp1394
I16
aS'on'
p1395
aaa.