(lp0
F0.9999870000779993
aF0.9999880000659994
aF0.9999880000659994
aF0.9999880000659994
aF0.9999880000659994
aF0.9999880000659994
aF0.9999880000659994
aF0.9999890000549995
aF0.9999890000549995
aF0.9999890000549995
aF0.9999890000549995
aF0.9999890000549995
aF0.9999890000549995
aF0.9999890000549995
aF0.9999890000549995
aF0.9999890000549995
aF0.9999890000549995
aF0.9999890000549995
aF0.9999890000549995
aF0.9999890000549995
aF0.9999900000449995
aF0.9999900000449995
aF0.9999900000449995
aF0.9999900000449995
aF0.9999900000449995
aF0.9999900000449995
aF0.9999900000449995
aF0.9999900000449995
aF0.9999900000449995
aF0.9999900000449995
aF0.9999910000359996
aF0.9999910000359996
aF0.9999910000359996
aF0.9999910000359996
aF0.9999910000359996
aF0.9999910000359996
aF0.9999910000359996
aF0.9999910000359996
aF0.9999910000359996
aF0.9999910000359996
aF0.9999910000359996
aF0.9999920000279997
aF0.9999920000279997
aF0.9999920000279997
aF0.9999920000279997
aF0.9999920000279997
aF0.9999920000279997
aF0.9999920000279997
aF0.9999920000279997
aF0.9999920000279997
aF0.9999920000279997
aF0.9999920000279997
aF0.9999920000279997
aF0.9999920000279997
aF0.9999920000279997
aF0.9999920000279997
aF0.9999920000279997
aF0.9999920000279997
aF0.9999920000279997
aF0.9999920000279997
aF0.9999920000279997
aF0.9999920000279997
aF0.9999920000279997
aF0.9999930000209998
aF0.9999930000209998
aF0.9999930000209998
aF0.9999930000209998
aF0.9999930000209998
aF0.9999930000209998
aF0.9999930000209998
aF0.9999930000209998
aF0.9999930000209998
aF0.9999930000209998
aF0.9999930000209998
aF0.9999930000209998
aF0.9999930000209998
aF0.9999930000209998
aF0.9999930000209998
aF0.9999930000209998
aF0.9999930000209998
aF0.9999930000209998
aF0.9999930000209998
aF0.9999940000149998
aF0.9999940000149998
aF0.9999940000149998
aF0.9999940000149998
aF0.9999940000149998
aF0.9999940000149998
aF0.9999940000149998
aF0.9999940000149998
aF0.9999950000099999
aF0.9999950000099999
aF0.9999950000099999
aF0.9999950000099999
aF0.9999950000099999
aF0.9999950000099999
aF0.9999950000099999
aF0.9999950000099999
aF0.9999950000099999
aF0.9999960000059999
aF0.9999960000059999
aF0.9999960000059999
aF0.9999960000059999
aF0.9999960000059999
aF0.9999960000059999
aF0.9999960000059999
aF0.9999960000059999
aF0.9999960000059999
aF0.9999960000059999
aF0.9999970000029998
aF0.9999970000029998
aF0.9999970000029998
aF0.9999970000029998
aF0.999999
aF0.999999
aF0.999999
a.