(lp0
F0.9999910000359996
aF0.9999920000279997
aF0.9999920000279997
aF0.9999920000279997
aF0.9999920000279997
aF0.9999920000279997
aF0.9999920000279997
aF0.9999930000209998
aF0.9999930000209998
aF0.9999930000209998
aF0.9999940000149998
aF0.9999940000149998
aF0.9999940000149998
aF0.9999940000149998
aF0.9999940000149998
aF0.9999950000099999
aF0.9999950000099999
aF0.9999950000099999
aF0.9999960000059999
aF0.9999960000059999
aF0.9999960000059999
aF0.9999960000059999
aF0.9999960000059999
aF0.9999960000059999
aF0.9999960000059999
aF0.9999960000059999
aF0.9999960000059999
aF0.9999960000059999
aF0.9999970000029998
aF0.9999970000029998
aF0.9999970000029998
aF0.9999980000009999
aF0.999999
aF0.999999
aF0.999999
aF0.999999
aF0.999999
a.