(lp0
(lp1
(lp2
I7
aS'off'
p3
aa(lp4
I6
aS'on'
p5
aa(lp6
I2
aS'on'
p7
aa(lp8
I13
aS'off'
p9
aa(lp10
I9
aS'off'
p11
aa(lp12
I5
aS'off'
p13
aa(lp14
I1
aS'off'
p15
aa(lp16
I15
aS'on'
p17
aa(lp18
I11
aS'off'
p19
aa(lp20
I16
aS'on'
p21
aa(lp22
I7
aS'off'
p23
aa(lp24
I3
aS'off'
p25
aaa(lp26
g2
ag4
ag6
ag8
a(lp27
I9
aS'on'
p28
aa(lp29
I4
aS'on'
p30
aa(lp31
I1
aS'on'
p32
aa(lp33
I15
ag17
aa(lp34
I11
ag19
aa(lp35
I16
ag21
aa(lp36
I7
ag23
aa(lp37
I3
ag25
aaa(lp38
(lp39
I10
aS'on'
p40
aa(lp41
I11
aS'on'
p42
aa(lp43
I16
ag21
aa(lp44
I7
aS'on'
p45
aa(lp46
I6
ag5
aa(lp47
I2
ag7
aa(lp48
I13
ag9
aa(lp49
I9
ag11
aa(lp50
I5
ag13
aa(lp51
I1
aS'on'
p52
aa(lp53
I3
aS'off'
p54
aa(lp55
I14
aS'on'
p56
aaa(lp57
g39
ag41
ag43
ag44
ag46
ag47
ag48
a(lp58
I9
ag28
aa(lp59
I4
ag30
aa(lp60
I1
aS'off'
p61
aa(lp62
I3
ag54
aa(lp63
I14
ag56
aaa(lp64
(lp65
I15
aS'off'
p66
aa(lp67
I11
ag19
aa(lp68
I16
ag21
aa(lp69
I7
ag45
aa(lp70
I6
ag5
aa(lp71
I2
ag7
aa(lp72
I13
ag9
aa(lp73
I9
ag11
aa(lp74
I5
ag13
aa(lp75
I1
ag52
aa(lp76
I3
ag54
aa(lp77
I14
ag56
aaa(lp78
g65
ag67
ag68
ag69
ag70
ag71
ag72
a(lp79
I9
ag28
aa(lp80
I4
ag30
aa(lp81
I1
ag61
aa(lp82
I3
ag54
aa(lp83
I14
ag56
aaa(lp84
(lp85
I2
aS'off'
p86
aa(lp87
I13
ag9
aa(lp88
I9
ag11
aa(lp89
I5
ag13
aa(lp90
I1
ag15
aa(lp91
I15
ag17
aa(lp92
I11
ag19
aa(lp93
I16
ag21
aa(lp94
I7
ag23
aa(lp95
I3
aS'on'
p96
aa(lp97
I14
ag56
aaa(lp98
g85
ag87
a(lp99
I9
ag28
aa(lp100
I4
ag30
aa(lp101
I1
ag32
aa(lp102
I15
ag17
aa(lp103
I11
ag19
aa(lp104
I16
ag21
aa(lp105
I7
ag23
aa(lp106
I3
ag96
aa(lp107
I14
ag56
aaa(lp108
g2
a(lp109
I6
aS'off'
p110
aa(lp111
I5
aS'off'
p112
aa(lp113
I9
aS'off'
p114
aa(lp115
I4
ag30
aa(lp116
I1
ag32
aa(lp117
I15
ag17
aa(lp118
I11
ag19
aa(lp119
I16
ag21
aa(lp120
I7
ag23
aa(lp121
I3
ag25
aaa(lp122
g2
ag109
ag111
a(lp123
I9
aS'on'
p124
aa(lp125
I5
ag13
aa(lp126
I1
ag15
aa(lp127
I15
ag17
aa(lp128
I11
ag19
aa(lp129
I16
ag21
aa(lp130
I7
ag23
aa(lp131
I3
ag25
aaa(lp132
g2
ag109
a(lp133
I5
aS'on'
p134
aa(lp135
I1
ag15
aa(lp136
I15
ag17
aa(lp137
I11
ag19
aa(lp138
I16
aS'off'
p139
aa(lp140
I12
aS'off'
p141
aa(lp142
I13
aS'on'
p143
aa(lp144
I9
ag28
aa(lp145
I4
aS'off'
p146
aaa(lp147
g2
ag109
ag133
ag135
ag136
a(lp148
I11
aS'on'
p149
aa(lp150
I6
aS'off'
p151
aa(lp152
I2
ag7
aa(lp153
I13
ag9
aa(lp154
I9
ag28
aa(lp155
I4
ag146
aaa(lp156
g39
ag41
ag43
ag44
a(lp157
I6
ag110
aa(lp158
I5
ag112
aa(lp159
I9
ag114
aa(lp160
I4
ag30
aa(lp161
I1
ag61
aa(lp162
I3
ag54
aa(lp163
I14
ag56
aaa(lp164
g39
ag41
ag43
ag44
ag157
ag158
a(lp165
I9
ag124
aa(lp166
I5
ag13
aa(lp167
I1
ag52
aa(lp168
I3
ag54
aa(lp169
I14
ag56
aaa(lp170
g39
ag41
ag43
ag44
ag46
ag47
ag48
ag49
ag50
ag51
a(lp171
I3
aS'on'
p172
aaa(lp173
g39
ag41
ag43
ag44
ag46
ag47
ag48
ag58
ag59
ag60
a(lp174
I3
ag172
aaa(lp175
g65
ag67
ag68
ag69
a(lp176
I6
ag110
aa(lp177
I5
ag112
aa(lp178
I9
ag114
aa(lp179
I4
ag30
aa(lp180
I1
ag61
aa(lp181
I3
ag54
aa(lp182
I14
ag56
aaa(lp183
g65
ag67
ag68
ag69
ag176
ag177
a(lp184
I9
ag124
aa(lp185
I5
ag13
aa(lp186
I1
ag52
aa(lp187
I3
ag54
aa(lp188
I14
ag56
aaa(lp189
g65
ag67
ag68
ag69
ag70
ag71
ag72
ag73
ag74
a(lp190
I1
ag15
aa(lp191
I15
aS'off'
p192
aaa(lp193
g65
ag67
ag68
ag69
ag70
ag71
ag72
ag73
ag74
ag75
a(lp194
I3
ag172
aaa(lp195
g65
ag67
ag68
ag69
ag70
ag71
ag72
ag79
ag80
ag81
a(lp196
I3
ag172
aaa(lp197
g65
ag67
ag68
ag69
ag70
ag71
ag72
ag79
ag80
a(lp198
I1
ag32
aa(lp199
I15
ag192
aaa(lp200
g39
a(lp201
I11
aS'off'
p202
aa(lp203
I6
ag151
aa(lp204
I2
ag7
aa(lp205
I13
ag9
aa(lp206
I9
ag11
aa(lp207
I5
ag13
aa(lp208
I1
ag52
aa(lp209
I3
ag54
aa(lp210
I14
ag56
aaa(lp211
g39
ag201
ag203
ag204
ag205
a(lp212
I9
ag28
aa(lp213
I4
ag30
aa(lp214
I1
ag61
aa(lp215
I3
ag54
aa(lp216
I14
ag56
aaa(lp217
g39
ag41
a(lp218
I16
ag139
aa(lp219
I12
ag141
aa(lp220
I13
ag143
aa(lp221
I9
ag11
aa(lp222
I5
ag13
aa(lp223
I1
ag52
aa(lp224
I3
ag54
aa(lp225
I14
ag56
aaa(lp226
g39
ag41
ag218
ag219
ag220
a(lp227
I9
ag28
aa(lp228
I4
ag30
aa(lp229
I1
ag61
aa(lp230
I3
ag54
aa(lp231
I14
ag56
aaa(lp232
g39
ag41
ag43
ag44
ag157
ag158
ag159
ag160
ag161
a(lp233
I3
ag172
aaa(lp234
g39
ag41
ag43
ag44
ag157
ag158
ag165
ag166
ag167
a(lp235
I3
ag172
aaa(lp236
g65
ag67
a(lp237
I16
ag139
aa(lp238
I12
ag141
aa(lp239
I13
ag143
aa(lp240
I9
ag11
aa(lp241
I5
ag13
aa(lp242
I1
ag52
aa(lp243
I3
ag54
aa(lp244
I14
ag56
aaa(lp245
g65
ag67
ag237
ag238
ag239
a(lp246
I9
ag28
aa(lp247
I4
ag30
aa(lp248
I1
ag61
aa(lp249
I3
ag54
aa(lp250
I14
ag56
aaa(lp251
g65
ag67
ag68
ag69
ag176
ag177
ag178
ag179
ag180
a(lp252
I3
ag172
aaa(lp253
g65
ag67
ag68
ag69
ag176
ag177
ag178
ag179
a(lp254
I1
ag32
aa(lp255
I15
ag192
aaa(lp256
g65
ag67
ag68
ag69
ag176
ag177
ag184
ag185
a(lp257
I1
ag15
aa(lp258
I15
ag192
aaa(lp259
g65
ag67
ag68
ag69
ag176
ag177
ag184
ag185
ag186
a(lp260
I3
ag172
aaa(lp261
g65
a(lp262
I11
ag149
aa(lp263
I6
ag151
aa(lp264
I2
ag7
aa(lp265
I13
ag9
aa(lp266
I9
ag11
aa(lp267
I5
ag13
aa(lp268
I1
ag52
aa(lp269
I3
ag54
aa(lp270
I14
ag56
aaa(lp271
g65
ag262
ag263
ag264
ag265
a(lp272
I9
ag28
aa(lp273
I4
ag30
aa(lp274
I1
ag61
aa(lp275
I3
ag54
aa(lp276
I14
ag56
aaa(lp277
g2
ag109
ag133
ag135
ag136
ag137
a(lp278
I16
ag21
aa(lp279
I7
ag23
aa(lp280
I3
ag25
aaa(lp281
g39
ag201
ag203
ag204
ag205
ag206
ag207
ag208
a(lp282
I3
ag172
aaa(lp283
g39
ag201
ag203
ag204
ag205
ag212
ag213
ag214
a(lp284
I3
ag172
aaa(lp285
g39
ag201
a(lp286
I6
aS'on'
p287
aa(lp288
I5
ag112
aa(lp289
I9
ag114
aa(lp290
I4
ag30
aa(lp291
I1
ag61
aa(lp292
I3
ag54
aa(lp293
I14
ag56
aaa(lp294
g39
ag201
ag286
ag288
a(lp295
I9
ag124
aa(lp296
I5
ag13
aa(lp297
I1
ag52
aa(lp298
I3
ag54
aa(lp299
I14
ag56
aaa(lp300
g39
ag41
ag218
ag219
ag220
ag221
ag222
ag223
a(lp301
I3
ag172
aaa(lp302
g39
ag41
ag218
ag219
ag220
ag227
ag228
ag229
a(lp303
I3
ag172
aaa(lp304
g39
ag41
ag43
ag44
ag157
a(lp305
I5
ag134
aa(lp306
I1
ag52
aa(lp307
I3
ag54
aa(lp308
I14
ag56
aaa(lp309
g39
ag41
ag43
ag44
ag46
ag47
ag48
ag58
a(lp310
I4
ag146
aaa(lp311
g65
ag67
ag237
ag238
ag239
ag240
ag241
a(lp312
I1
ag15
aa(lp313
I15
ag192
aaa(lp314
g65
ag67
ag237
ag238
ag239
ag240
ag241
ag242
a(lp315
I3
ag172
aaa(lp316
g65
ag67
ag237
ag238
ag239
ag246
ag247
ag248
a(lp317
I3
ag172
aaa(lp318
g65
ag67
ag237
ag238
ag239
ag246
ag247
a(lp319
I1
ag32
aa(lp320
I15
ag192
aaa(lp321
g65
ag67
ag68
ag69
ag176
a(lp322
I5
ag134
aa(lp323
I1
ag52
aa(lp324
I3
ag54
aa(lp325
I14
ag56
aaa(lp326
g65
ag262
ag263
ag264
ag265
ag266
ag267
a(lp327
I1
ag15
aa(lp328
I15
ag192
aaa(lp329
g65
ag262
ag263
ag264
ag265
ag266
ag267
ag268
a(lp330
I3
ag172
aaa(lp331
g65
ag262
ag263
ag264
ag265
ag272
ag273
ag274
a(lp332
I3
ag172
aaa(lp333
g65
ag262
ag263
ag264
ag265
ag272
ag273
a(lp334
I1
ag32
aa(lp335
I15
ag192
aaa(lp336
g65
ag262
a(lp337
I6
ag287
aa(lp338
I5
ag112
aa(lp339
I9
ag114
aa(lp340
I4
ag30
aa(lp341
I1
ag61
aa(lp342
I3
ag54
aa(lp343
I14
ag56
aaa(lp344
g65
ag262
ag337
ag338
a(lp345
I9
ag124
aa(lp346
I5
ag13
aa(lp347
I1
ag52
aa(lp348
I3
ag54
aa(lp349
I14
ag56
aaa(lp350
g2
ag4
ag6
ag8
ag10
ag12
ag14
a(lp351
I15
ag192
aaa(lp352
g2
ag4
ag6
ag8
ag10
ag12
a(lp353
I1
ag52
aa(lp354
I3
ag172
aaa(lp355
g2
ag4
ag6
ag8
ag27
ag29
a(lp356
I1
ag61
aa(lp357
I3
ag172
aaa(lp358
g2
ag4
ag6
ag8
ag27
ag29
ag31
a(lp359
I15
ag192
aaa(lp360
g39
ag201
ag286
ag288
ag289
ag290
ag291
a(lp361
I3
ag172
aaa(lp362
g39
ag201
ag286
ag288
ag295
ag296
ag297
a(lp363
I3
ag172
aaa(lp364
g39
ag41
ag43
ag44
ag157
ag158
ag159
a(lp365
I4
ag146
aaa(lp366
g39
ag41
ag43
ag44
ag157
ag305
ag306
a(lp367
I3
ag172
aaa(lp368
g39
ag41
ag43
ag44
ag46
ag47
a(lp369
I13
aS'on'
p370
aa(lp371
I14
aS'off'
p372
aaa(lp373
g65
ag67
ag68
ag69
ag176
ag322
a(lp374
I1
ag15
aa(lp375
I15
ag192
aaa(lp376
g65
ag67
ag68
ag69
ag176
ag322
ag323
a(lp377
I3
ag172
aaa(lp378
g65
ag67
ag68
ag69
ag70
ag71
a(lp379
I13
ag370
aa(lp380
I14
ag372
aaa(lp381
g65
ag262
ag337
ag338
ag339
ag340
ag341
a(lp382
I3
ag172
aaa(lp383
g65
ag262
ag337
ag338
ag339
ag340
a(lp384
I1
ag32
aa(lp385
I15
ag192
aaa(lp386
g65
ag262
ag337
ag338
ag345
ag346
a(lp387
I1
ag15
aa(lp388
I15
ag192
aaa(lp389
g65
ag262
ag337
ag338
ag345
ag346
ag347
a(lp390
I3
ag172
aaa(lp391
g85
ag87
ag88
ag89
a(lp392
I1
ag52
aa(lp393
I3
ag54
aa(lp394
I14
ag56
aaa(lp395
g85
ag87
ag99
ag100
a(lp396
I1
ag61
aa(lp397
I3
ag54
aa(lp398
I14
ag56
aaa(lp399
g2
ag109
ag111
ag113
ag115
a(lp400
I1
ag61
aa(lp401
I3
ag172
aaa(lp402
g2
ag109
ag111
ag113
ag115
ag116
a(lp403
I15
ag192
aaa(lp404
g2
ag109
ag111
ag123
ag125
ag126
a(lp405
I15
ag192
aaa(lp406
g2
ag109
ag111
ag123
ag125
a(lp407
I1
ag52
aa(lp408
I3
ag172
aaa(lp409
g39
ag201
ag203
ag204
ag205
ag212
a(lp410
I4
ag146
aaa(lp411
g39
ag201
ag286
a(lp412
I5
ag134
aa(lp413
I1
ag52
aa(lp414
I3
ag54
aa(lp415
I14
ag56
aaa(lp416
g39
ag41
ag218
ag219
ag220
ag227
a(lp417
I4
ag146
aaa(lp418
g65
ag262
ag337
a(lp419
I5
ag134
aa(lp420
I1
ag52
aa(lp421
I3
ag54
aa(lp422
I14
ag56
aaa(lp423
g85
ag87
ag88
ag89
ag90
a(lp424
I15
ag192
aaa(lp425
g85
ag87
ag99
ag100
ag101
a(lp426
I15
ag192
aaa(lp427
g2
ag4
ag6
ag8
ag27
a(lp428
I4
ag146
aaa(lp429
g39
ag201
ag203
ag204
a(lp430
I13
ag370
aa(lp431
I14
ag372
aaa(lp432
g39
ag201
ag286
ag288
ag289
a(lp433
I4
ag146
aaa(lp434
g39
ag201
ag286
ag412
ag413
a(lp435
I3
ag172
aaa(lp436
g39
ag41
ag218
ag219
a(lp437
I13
aS'off'
p438
aa(lp439
I14
ag372
aaa(lp440
g39
ag41
ag43
a(lp441
I7
ag23
aa(lp442
I3
ag96
aa(lp443
I14
ag56
aaa(lp444
g65
ag67
ag237
ag238
a(lp445
I13
ag438
aa(lp446
I14
ag372
aaa(lp447
g65
ag67
ag68
a(lp448
I7
ag23
aa(lp449
I3
ag96
aa(lp450
I14
ag56
aaa(lp451
g65
ag262
ag263
ag264
a(lp452
I13
ag370
aa(lp453
I14
ag372
aaa(lp454
g65
ag262
ag337
ag419
a(lp455
I1
ag15
aa(lp456
I15
ag192
aaa(lp457
g65
ag262
ag337
ag419
ag420
a(lp458
I3
ag172
aaa(lp459
g2
ag109
ag111
ag113
a(lp460
I4
ag146
aaa(lp461
g2
ag109
ag133
ag135
a(lp462
I15
ag192
aaa(lp463
g2
ag109
ag133
a(lp464
I1
ag52
aa(lp465
I3
ag172
aaa(lp466
g39
ag41
ag43
ag441
a(lp467
I3
ag25
aaa(lp468
g65
ag67
ag68
ag448
a(lp469
I3
ag25
aaa(lp470
g85
ag87
ag99
a(lp471
I4
ag146
aaa(lp472
g85
a(lp473
I13
ag370
aa(lp474
I14
ag372
aaa(lp475
(lp476
I7
aS'on'
p477
aa(lp478
I3
ag25
aaa(lp479
(lp480
I15
aS'on'
p481
aaa.