(lp0
(lp1
(lp2
I2
aS'off'
p3
aa(lp4
I7
aS'off'
p5
aa(lp6
I8
aS'on'
p7
aa(lp8
I7
aS'off'
p9
aa(lp10
I9
aS'on'
p11
aa(lp12
I6
aS'off'
p13
aa(lp14
I5
aS'on'
p15
aa(lp16
I6
aS'off'
p17
aa(lp18
I3
aS'off'
p19
aaa(lp20
(lp21
I4
aS'off'
p22
aa(lp23
I8
aS'off'
p24
aa(lp25
I7
aS'on'
p26
aa(lp27
I8
aS'off'
p28
aa(lp29
I10
aS'on'
p30
aa(lp31
I5
aS'off'
p32
aa(lp33
I6
aS'on'
p34
aa(lp35
I5
aS'off'
p36
aa(lp37
I1
aS'off'
p38
aaa(lp39
g2
ag4
a(lp40
I8
ag28
aa(lp41
I10
ag30
aa(lp42
I5
ag32
aa(lp43
I6
ag17
aa(lp44
I3
ag19
aaa(lp45
g2
ag4
ag6
ag8
ag10
a(lp46
I6
aS'on'
p47
aa(lp48
I3
ag19
aaa(lp49
g2
a(lp50
I7
aS'on'
p51
aa(lp52
I9
ag11
aa(lp53
I6
ag13
aa(lp54
I5
ag15
aa(lp55
I6
ag17
aa(lp56
I3
ag19
aaa(lp57
g21
ag23
a(lp58
I7
ag9
aa(lp59
I9
ag11
aa(lp60
I6
ag13
aa(lp61
I5
ag36
aa(lp62
I1
ag38
aaa(lp63
g21
ag23
ag25
ag27
ag29
a(lp64
I5
aS'on'
p65
aa(lp66
I1
ag38
aaa(lp67
g21
a(lp68
I8
aS'on'
p69
aa(lp70
I10
ag30
aa(lp71
I5
ag32
aa(lp72
I6
ag34
aa(lp73
I5
ag36
aa(lp74
I1
ag38
aaa(lp75
g2
ag4
ag6
ag8
a(lp76
I9
aS'off'
p77
aa(lp78
I12
aS'off'
p79
aaa(lp80
g21
ag23
ag25
ag27
a(lp81
I10
aS'off'
p82
aa(lp83
I13
aS'off'
p84
aaa(lp85
(lp86
I11
aS'off'
p87
aa(lp88
I9
aS'off'
p89
aa(lp90
I6
ag13
aa(lp91
I5
ag15
aa(lp92
I6
ag17
aa(lp93
I3
ag19
aaa(lp94
(lp95
I14
aS'off'
p96
aa(lp97
I10
aS'off'
p98
aa(lp99
I5
ag32
aa(lp100
I6
ag34
aa(lp101
I5
ag36
aa(lp102
I1
ag38
aaa(lp103
g2
ag4
ag40
a(lp104
I10
ag82
aa(lp105
I13
ag84
aaa(lp106
g2
ag50
ag52
a(lp107
I6
ag47
aa(lp108
I3
ag19
aaa(lp109
g21
ag23
ag58
a(lp110
I9
ag77
aa(lp111
I12
ag79
aaa(lp112
g21
ag68
ag70
a(lp113
I5
ag65
aa(lp114
I1
ag38
aaa(lp115
g86
ag88
ag90
a(lp116
I5
ag36
aa(lp117
I1
ag38
aaa(lp118
g95
ag97
ag99
a(lp119
I6
ag17
aa(lp120
I3
ag19
aaa(lp121
g2
ag50
a(lp122
I9
ag77
aa(lp123
I12
ag79
aaa(lp124
g21
ag68
a(lp125
I10
ag82
aa(lp126
I13
ag84
aaa(lp127
g86
ag88
a(lp128
I6
ag47
aa(lp129
I3
ag19
aaa(lp130
g95
ag97
a(lp131
I5
ag65
aa(lp132
I1
ag38
aaa(lp133
g86
a(lp134
I9
aS'on'
p135
aa(lp136
I12
ag79
aaa(lp137
g95
a(lp138
I10
aS'on'
p139
aa(lp140
I13
ag84
aaa.