(lp0
(lp1
I4
aI2
aI0
aI4
aI7
aI5
aI1
aa(lp2
I6
aI5
aI0
aI5
aI4
aI4
aI4
aa(lp3
I2
aI3
aI0
aI4
aI6
aI3
aI3
aa(lp4
I3
aI1
aI0
aI4
aI7
aI3
aI2
aa(lp5
I3
aI4
aI0
aI3
aI6
aI5
aI2
aa(lp6
I4
aI3
aI0
aI3
aI7
aI4
aI2
aa(lp7
I5
aI4
aI0
aI2
aI6
aI6
aI2
aa(lp8
I5
aI6
aI0
aI4
aI5
aI4
aI3
aa(lp9
I6
aI6
aI0
aI4
aI5
aI3
aI4
aa(lp10
I2
aI4
aI0
aI5
aI4
aI3
aI3
aa(lp11
I3
aI1
aI0
aI3
aI7
aI3
aI2
aa(lp12
I3
aI6
aI0
aI3
aI6
aI3
aI3
aa(lp13
I4
aI1
aI0
aI4
aI6
aI3
aI2
aa(lp14
I4
aI2
aI0
aI4
aI5
aI5
aI1
aa(lp15
I4
aI2
aI0
aI4
aI5
aI5
aI1
aa(lp16
I4
aI3
aI0
aI2
aI6
aI4
aI3
aa(lp17
I4
aI4
aI0
aI4
aI4
aI4
aI3
aa(lp18
I5
aI4
aI0
aI4
aI4
aI2
aI5
aa(lp19
I6
aI5
aI0
aI5
aI2
aI4
aI4
aa(lp20
I2
aI3
aI0
aI4
aI4
aI3
aI3
aa(lp21
I2
aI3
aI0
aI4
aI4
aI3
aI3
aa(lp22
I2
aI5
aI0
aI3
aI6
aI3
aI2
aa(lp23
I2
aI7
aI0
aI2
aI7
aI3
aI2
aa(lp24
I3
aI0
aI0
aI4
aI6
aI1
aI3
aa(lp25
I3
aI1
aI0
aI4
aI5
aI3
aI2
aa(lp26
I3
aI1
aI0
aI4
aI5
aI3
aI2
aa(lp27
I3
aI2
aI0
aI2
aI7
aI2
aI3
aa(lp28
I3
aI3
aI0
aI2
aI6
aI2
aI4
aa(lp29
I3
aI3
aI0
aI2
aI6
aI5
aI1
aa(lp30
I3
aI3
aI0
aI2
aI7
aI3
aI2
aa(lp31
I3
aI3
aI0
aI4
aI4
aI4
aI2
aa(lp32
I3
aI4
aI0
aI2
aI7
aI3
aI2
aa(lp33
I3
aI4
aI0
aI3
aI4
aI5
aI2
aa(lp34
I3
aI4
aI0
aI4
aI4
aI2
aI4
aa(lp35
I3
aI4
aI0
aI4
aI4
aI3
aI3
aa(lp36
I3
aI5
aI0
aI4
aI5
aI2
aI3
aa(lp37
I3
aI6
aI0
aI4
aI4
aI2
aI4
aa(lp38
I3
aI7
aI0
aI2
aI7
aI2
aI3
aa(lp39
I4
aI1
aI0
aI4
aI4
aI3
aI3
aa(lp40
I4
aI3
aI0
aI3
aI5
aI4
aI2
aa(lp41
I4
aI3
aI0
aI3
aI5
aI4
aI2
aa(lp42
I4
aI4
aI0
aI1
aI6
aI4
aI3
aa(lp43
I4
aI4
aI0
aI4
aI4
aI3
aI3
aa(lp44
I4
aI5
aI0
aI3
aI5
aI2
aI4
aa(lp45
I4
aI5
aI0
aI3
aI5
aI3
aI3
aa(lp46
I5
aI3
aI0
aI2
aI5
aI4
aI3
aa(lp47
I5
aI5
aI0
aI3
aI5
aI1
aI5
aa(lp48
I5
aI5
aI0
aI3
aI5
aI2
aI4
aa(lp49
I5
aI6
aI0
aI4
aI3
aI4
aI3
aa(lp50
I6
aI6
aI0
aI4
aI3
aI3
aI4
aa(lp51
I6
aI6
aI0
aI4
aI3
aI3
aI4
aa(lp52
I1
aI1
aI0
aI2
aI7
aI3
aI1
aa(lp53
I1
aI2
aI0
aI3
aI5
aI2
aI3
aa(lp54
I1
aI4
aI0
aI2
aI7
aI2
aI2
aa(lp55
I1
aI4
aI0
aI4
aI4
aI3
aI2
aa(lp56
I2
aI1
aI0
aI3
aI6
aI1
aI3
aa(lp57
I2
aI2
aI0
aI2
aI6
aI5
aI0
aa(lp58
I2
aI2
aI0
aI4
aI5
aI3
aI1
aa(lp59
I2
aI3
aI0
aI1
aI7
aI3
aI2
aa(lp60
I2
aI3
aI0
aI2
aI6
aI3
aI2
aa(lp61
I2
aI4
aI0
aI3
aI4
aI4
aI2
aa(lp62
I2
aI4
aI0
aI4
aI5
aI2
aI2
aa(lp63
I2
aI4
aI0
aI5
aI2
aI3
aI3
aa(lp64
I2
aI5
aI0
aI1
aI7
aI3
aI2
aa(lp65
I2
aI5
aI0
aI3
aI4
aI2
aI4
aa(lp66
I2
aI6
aI0
aI1
aI6
aI4
aI2
aa(lp67
I3
aI0
aI0
aI3
aI6
aI1
aI3
aa(lp68
I3
aI1
aI0
aI3
aI5
aI3
aI2
aa(lp69
I3
aI2
aI0
aI3
aI5
aI2
aI3
aa(lp70
I3
aI2
aI0
aI3
aI5
aI4
aI1
aa(lp71
I3
aI4
aI0
aI1
aI8
aI2
aI2
aa(lp72
I3
aI4
aI0
aI2
aI5
aI2
aI4
aa(lp73
I3
aI4
aI0
aI2
aI5
aI3
aI3
aa(lp74
I3
aI4
aI0
aI3
aI4
aI2
aI4
aa(lp75
I3
aI4
aI0
aI3
aI4
aI2
aI4
aa(lp76
I3
aI4
aI0
aI3
aI5
aI3
aI2
aa(lp77
I3
aI5
aI0
aI1
aI7
aI2
aI3
aa(lp78
I3
aI5
aI0
aI3
aI5
aI1
aI4
aa(lp79
I3
aI5
aI0
aI3
aI5
aI2
aI3
aa(lp80
I3
aI6
aI0
aI3
aI4
aI3
aI3
aa(lp81
I4
aI1
aI0
aI4
aI4
aI3
aI2
aa(lp82
I4
aI1
aI0
aI4
aI4
aI3
aI2
aa(lp83
I4
aI2
aI0
aI2
aI5
aI2
aI4
aa(lp84
I4
aI2
aI0
aI4
aI3
aI5
aI1
aa(lp85
I4
aI4
aI0
aI2
aI5
aI1
aI5
aa(lp86
I4
aI4
aI0
aI2
aI5
aI2
aI4
aa(lp87
I4
aI4
aI0
aI2
aI5
aI4
aI2
aa(lp88
I4
aI4
aI0
aI3
aI5
aI2
aI3
aa(lp89
I4
aI5
aI0
aI1
aI5
aI4
aI3
aa(lp90
I5
aI4
aI0
aI1
aI6
aI3
aI3
aa(lp91
I5
aI5
aI0
aI1
aI5
aI3
aI4
aa(lp92
I1
aI2
aI0
aI3
aI5
aI2
aI2
aa(lp93
I1
aI2
aI0
aI3
aI5
aI2
aI2
aa(lp94
I1
aI3
aI0
aI3
aI6
aI1
aI2
aa(lp95
I1
aI5
aI0
aI1
aI6
aI4
aI1
aa(lp96
I2
aI0
aI0
aI3
aI6
aI2
aI1
aa(lp97
I2
aI1
aI0
aI3
aI5
aI2
aI2
aa(lp98
I2
aI1
aI0
aI3
aI5
aI4
aI0
aa(lp99
I2
aI2
aI0
aI3
aI5
aI2
aI2
aa(lp100
I2
aI3
aI0
aI2
aI5
aI3
aI2
aa(lp101
I2
aI3
aI0
aI4
aI2
aI3
aI3
aa(lp102
I2
aI4
aI0
aI2
aI4
aI4
aI2
aa(lp103
I2
aI4
aI0
aI2
aI5
aI1
aI4
aa(lp104
I2
aI4
aI0
aI2
aI5
aI2
aI3
aa(lp105
I2
aI5
aI0
aI2
aI5
aI3
aI2
aa(lp106
I2
aI5
aI0
aI2
aI5
aI3
aI2
aa(lp107
I2
aI5
aI0
aI3
aI4
aI3
aI2
aa(lp108
I2
aI6
aI0
aI2
aI5
aI1
aI4
aa(lp109
I2
aI6
aI0
aI2
aI5
aI2
aI3
aa(lp110
I3
aI0
aI0
aI4
aI4
aI1
aI3
aa(lp111
I3
aI0
aI0
aI4
aI4
aI1
aI3
aa(lp112
I3
aI1
aI0
aI4
aI3
aI3
aI2
aa(lp113
I3
aI2
aI0
aI2
aI5
aI2
aI3
aa(lp114
I3
aI2
aI0
aI2
aI6
aI2
aI2
aa(lp115
I3
aI3
aI0
aI2
aI4
aI2
aI4
aa(lp116
I3
aI3
aI0
aI2
aI5
aI2
aI3
aa(lp117
I3
aI3
aI0
aI2
aI5
aI4
aI1
aa(lp118
I3
aI4
aI0
aI2
aI5
aI2
aI3
aa(lp119
I3
aI4
aI0
aI4
aI2
aI3
aI3
aa(lp120
I3
aI5
aI0
aI2
aI5
aI2
aI3
aa(lp121
I3
aI5
aI0
aI4
aI3
aI2
aI3
aa(lp122
I3
aI5
aI0
aI4
aI3
aI2
aI3
aa(lp123
I3
aI7
aI0
aI1
aI5
aI3
aI3
aa(lp124
I3
aI7
aI0
aI2
aI5
aI2
aI3
aa(lp125
I4
aI3
aI0
aI3
aI3
aI4
aI2
aa(lp126
I4
aI3
aI0
aI3
aI4
aI4
aI1
aa(lp127
I4
aI5
aI0
aI3
aI3
aI3
aI3
aa(lp128
I4
aI7
aI0
aI1
aI5
aI2
aI4
aa(lp129
I5
aI5
aI0
aI3
aI3
aI1
aI5
aa(lp130
I6
aI6
aI0
aI4
aI1
aI3
aI4
aa(lp131
I1
aI1
aI0
aI2
aI5
aI3
aI1
aa(lp132
I1
aI2
aI0
aI3
aI3
aI2
aI3
aa(lp133
I1
aI4
aI0
aI2
aI4
aI2
aI3
aa(lp134
I1
aI4
aI0
aI2
aI5
aI2
aI2
aa(lp135
I1
aI4
aI0
aI2
aI5
aI3
aI1
aa(lp136
I1
aI4
aI0
aI4
aI2
aI3
aI2
aa(lp137
I2
aI1
aI0
aI3
aI4
aI1
aI3
aa(lp138
I2
aI1
aI0
aI3
aI4
aI1
aI3
aa(lp139
I2
aI2
aI0
aI1
aI5
aI1
aI4
aa(lp140
I2
aI2
aI0
aI1
aI5
aI3
aI2
aa(lp141
I2
aI2
aI0
aI4
aI3
aI3
aI1
aa(lp142
I2
aI3
aI0
aI1
aI5
aI3
aI2
aa(lp143
I2
aI4
aI0
aI1
aI6
aI1
aI3
aa(lp144
I2
aI4
aI0
aI4
aI3
aI2
aI2
aa(lp145
I2
aI4
aI0
aI4
aI3
aI2
aI2
aa(lp146
I2
aI6
aI0
aI1
aI5
aI3
aI2
aa(lp147
I3
aI0
aI0
aI3
aI4
aI1
aI3
aa(lp148
I3
aI2
aI0
aI3
aI3
aI2
aI3
aa(lp149
I3
aI2
aI0
aI3
aI3
aI4
aI1
aa(lp150
I3
aI2
aI0
aI3
aI4
aI2
aI2
aa(lp151
I3
aI4
aI0
aI1
aI6
aI2
aI2
aa(lp152
I3
aI4
aI0
aI2
aI3
aI2
aI4
aa(lp153
I3
aI4
aI0
aI2
aI3
aI3
aI3
aa(lp154
I3
aI4
aI0
aI2
aI3
aI3
aI3
aa(lp155
I3
aI4
aI0
aI3
aI3
aI2
aI3
aa(lp156
I3
aI4
aI0
aI3
aI3
aI3
aI2
aa(lp157
I3
aI5
aI0
aI1
aI5
aI2
aI3
aa(lp158
I3
aI5
aI0
aI3
aI3
aI1
aI4
aa(lp159
I3
aI6
aI0
aI1
aI5
aI2
aI3
aa(lp160
I4
aI1
aI0
aI4
aI2
aI3
aI2
aa(lp161
I4
aI3
aI0
aI0
aI6
aI1
aI4
aa(lp162
I4
aI4
aI0
aI2
aI3
aI1
aI5
aa(lp163
I4
aI4
aI0
aI2
aI3
aI1
aI5
aa(lp164
I4
aI4
aI0
aI2
aI3
aI2
aI4
aa(lp165
I4
aI4
aI0
aI2
aI3
aI4
aI2
aa(lp166
I4
aI4
aI0
aI2
aI4
aI3
aI2
aa(lp167
I4
aI4
aI0
aI5
aI1
aI2
aI3
aa(lp168
I5
aI4
aI0
aI1
aI4
aI3
aI3
aa(lp169
I5
aI5
aI0
aI1
aI3
aI3
aI4
aa(lp170
I1
aI1
aI0
aI1
aI5
aI3
aI1
aa(lp171
I1
aI1
aI0
aI3
aI4
aI2
aI1
aa(lp172
I1
aI2
aI0
aI1
aI5
aI1
aI3
aa(lp173
I1
aI2
aI0
aI3
aI3
aI2
aI2
aa(lp174
I1
aI2
aI0
aI3
aI3
aI2
aI2
aa(lp175
I1
aI3
aI0
aI3
aI4
aI1
aI2
aa(lp176
I1
aI3
aI0
aI3
aI4
aI1
aI2
aa(lp177
I1
aI4
aI0
aI3
aI3
aI2
aI2
aa(lp178
I2
aI0
aI0
aI3
aI4
aI2
aI1
aa(lp179
I2
aI1
aI0
aI3
aI3
aI2
aI2
aa(lp180
I2
aI1
aI0
aI3
aI3
aI4
aI0
aa(lp181
I2
aI2
aI0
aI3
aI3
aI2
aI2
aa(lp182
I2
aI2
aI0
aI3
aI4
aI2
aI1
aa(lp183
I2
aI3
aI0
aI2
aI3
aI3
aI2
aa(lp184
I2
aI3
aI0
aI2
aI3
aI3
aI2
aa(lp185
I2
aI4
aI0
aI2
aI3
aI1
aI4
aa(lp186
I2
aI4
aI0
aI2
aI3
aI1
aI4
aa(lp187
I2
aI4
aI0
aI2
aI3
aI2
aI3
aa(lp188
I2
aI5
aI0
aI0
aI6
aI1
aI3
aa(lp189
I2
aI5
aI0
aI2
aI3
aI3
aI2
aa(lp190
I2
aI5
aI0
aI2
aI3
aI3
aI2
aa(lp191
I2
aI5
aI0
aI2
aI4
aI2
aI2
aa(lp192
I2
aI6
aI0
aI2
aI3
aI1
aI4
aa(lp193
I3
aI0
aI0
aI4
aI2
aI1
aI3
aa(lp194
I3
aI2
aI0
aI2
aI4
aI2
aI2
aa(lp195
I3
aI2
aI0
aI2
aI4
aI2
aI2
aa(lp196
I3
aI2
aI0
aI4
aI2
aI1
aI3
aa(lp197
I3
aI3
aI0
aI2
aI3
aI2
aI3
aa(lp198
I3
aI3
aI0
aI2
aI3
aI4
aI1
aa(lp199
I3
aI4
aI0
aI2
aI3
aI2
aI3
aa(lp200
I3
aI4
aI0
aI4
aI1
aI1
aI4
aa(lp201
I3
aI5
aI0
aI2
aI4
aI1
aI3
aa(lp202
I3
aI5
aI0
aI4
aI1
aI2
aI3
aa(lp203
I3
aI7
aI0
aI1
aI3
aI3
aI3
aa(lp204
I4
aI2
aI0
aI3
aI3
aI2
aI2
aa(lp205
I4
aI3
aI0
aI3
aI2
aI4
aI1
aa(lp206
I1
aI2
aI0
aI2
aI4
aI1
aI2
aa(lp207
I1
aI2
aI0
aI4
aI2
aI1
aI2
aa(lp208
I1
aI4
aI0
aI2
aI3
aI3
aI1
aa(lp209
I1
aI5
aI0
aI0
aI6
aI2
aI1
aa(lp210
I2
aI0
aI0
aI4
aI3
aI1
aI1
aa(lp211
I2
aI1
aI0
aI1
aI4
aI2
aI2
aa(lp212
I2
aI1
aI0
aI3
aI2
aI1
aI3
aa(lp213
I2
aI1
aI0
aI4
aI2
aI1
aI2
aa(lp214
I2
aI4
aI0
aI1
aI3
aI3
aI2
aa(lp215
I2
aI4
aI0
aI4
aI1
aI2
aI2
aa(lp216
I2
aI6
aI0
aI1
aI3
aI3
aI2
aa(lp217
I3
aI1
aI0
aI3
aI3
aI0
aI3
aa(lp218
I3
aI2
aI0
aI0
aI4
aI4
aI1
aa(lp219
I3
aI2
aI0
aI3
aI2
aI2
aI2
aa(lp220
I3
aI3
aI0
aI1
aI4
aI1
aI3
aa(lp221
I3
aI4
aI0
aI2
aI1
aI3
aI3
aa(lp222
I3
aI4
aI0
aI3
aI1
aI2
aI3
aa(lp223
I4
aI1
aI0
aI2
aI3
aI3
aI1
aa(lp224
I4
aI4
aI0
aI2
aI1
aI1
aI5
aa(lp225
I4
aI4
aI0
aI2
aI2
aI3
aI2
aa(lp226
I0
aI3
aI0
aI3
aI2
aI1
aI2
aa(lp227
I1
aI1
aI0
aI3
aI2
aI2
aI1
aa(lp228
I1
aI1
aI0
aI3
aI3
aI1
aI1
aa(lp229
I1
aI2
aI0
aI3
aI2
aI1
aI2
aa(lp230
I1
aI3
aI0
aI1
aI4
aI2
aI1
aa(lp231
I1
aI3
aI0
aI3
aI2
aI1
aI2
aa(lp232
I1
aI4
aI0
aI1
aI3
aI1
aI3
aa(lp233
I1
aI4
aI0
aI1
aI5
aI1
aI1
aa(lp234
I1
aI4
aI0
aI3
aI1
aI2
aI2
aa(lp235
I2
aI1
aI0
aI0
aI4
aI2
aI2
aa(lp236
I2
aI2
aI0
aI2
aI2
aI1
aI3
aa(lp237
I2
aI2
aI0
aI2
aI2
aI2
aI2
aa(lp238
I2
aI2
aI0
aI2
aI3
aI0
aI3
aa(lp239
I2
aI2
aI0
aI3
aI2
aI2
aI1
aa(lp240
I2
aI3
aI0
aI2
aI1
aI3
aI2
aa(lp241
I2
aI4
aI0
aI2
aI1
aI1
aI4
aa(lp242
I3
aI0
aI0
aI2
aI3
aI1
aI2
aa(lp243
I3
aI1
aI0
aI2
aI3
aI0
aI3
aa(lp244
I3
aI2
aI0
aI4
aI0
aI1
aI3
aa(lp245
I3
aI3
aI0
aI1
aI2
aI3
aI2
aa(lp246
I3
aI4
aI0
aI1
aI3
aI2
aI2
aa(lp247
I3
aI5
aI0
aI1
aI2
aI2
aI3
aa(lp248
I3
aI5
aI0
aI2
aI2
aI1
aI3
aa(lp249
I4
aI2
aI0
aI3
aI1
aI2
aI2
aa(lp250
I4
aI5
aI0
aI1
aI2
aI1
aI4
aa(lp251
I0
aI1
aI0
aI2
aI3
aI0
aI2
aa(lp252
I1
aI1
aI0
aI0
aI5
aI1
aI1
aa(lp253
I1
aI1
aI0
aI2
aI2
aI2
aI1
aa(lp254
I1
aI2
aI0
aI2
aI2
aI0
aI3
aa(lp255
I1
aI2
aI0
aI2
aI2
aI1
aI2
aa(lp256
I1
aI2
aI0
aI4
aI0
aI1
aI2
aa(lp257
I2
aI0
aI0
aI1
aI3
aI0
aI3
aa(lp258
I2
aI0
aI0
aI4
aI1
aI1
aI1
aa(lp259
I2
aI1
aI0
aI1
aI2
aI2
aI2
aa(lp260
I2
aI1
aI0
aI4
aI0
aI1
aI2
aa(lp261
I2
aI3
aI0
aI1
aI3
aI0
aI3
aa(lp262
I2
aI5
aI0
aI1
aI2
aI0
aI4
aa(lp263
I2
aI5
aI0
aI1
aI2
aI1
aI3
aa(lp264
I3
aI0
aI0
aI1
aI3
aI1
aI2
aa(lp265
I3
aI1
aI0
aI0
aI3
aI2
aI2
aa(lp266
I3
aI1
aI0
aI3
aI1
aI0
aI3
aa(lp267
I3
aI3
aI0
aI1
aI3
aI1
aI2
aa(lp268
I4
aI1
aI0
aI2
aI1
aI3
aI1
aa(lp269
I0
aI2
aI0
aI1
aI2
aI2
aI1
aa(lp270
I0
aI3
aI0
aI1
aI2
aI0
aI3
aa(lp271
I0
aI3
aI0
aI3
aI0
aI1
aI2
aa(lp272
I1
aI1
aI0
aI3
aI1
aI1
aI1
aa(lp273
I1
aI2
aI0
aI3
aI0
aI1
aI2
aa(lp274
I1
aI4
aI0
aI1
aI3
aI1
aI1
aa(lp275
I2
aI0
aI0
aI0
aI3
aI0
aI3
aa(lp276
I2
aI2
aI0
aI2
aI0
aI1
aI3
aa(lp277
I2
aI2
aI0
aI2
aI1
aI0
aI3
aa(lp278
I2
aI3
aI0
aI0
aI3
aI0
aI3
aa(lp279
I2
aI3
aI0
aI0
aI3
aI0
aI3
aa(lp280
I3
aI0
aI0
aI2
aI1
aI1
aI2
aa(lp281
I3
aI4
aI0
aI1
aI1
aI2
aI2
aa(lp282
I3
aI5
aI0
aI1
aI0
aI2
aI3
aa(lp283
I0
aI1
aI0
aI2
aI1
aI0
aI2
aa(lp284
I1
aI3
aI0
aI0
aI3
aI1
aI1
aa(lp285
I2
aI0
aI0
aI1
aI1
aI0
aI3
aa(lp286
I2
aI3
aI0
aI1
aI1
aI0
aI3
aa(lp287
I2
aI5
aI0
aI1
aI0
aI0
aI4
aa(lp288
I1
aI1
aI0
aI1
aI2
aI0
aI1
aa(lp289
I3
aI2
aI0
aI0
aI1
aI1
aI2
aa(lp290
I0
aI2
aI0
aI0
aI2
aI0
aI1
aa(lp291
I1
aI2
aI0
aI0
aI1
aI1
aI1
aa(lp292
I2
aI1
aI0
aI0
aI1
aI1
aI1
aa(lp293
I1
aI0
aI0
aI0
aI0
aI1
aI1
aa(lp294
I1
aI0
aI0
aI1
aI0
aI0
aI1
aa(lp295
I1
aI3
aI0
aI1
aI0
aI0
aI1
aa(lp296
I2
aI1
aI0
aI0
aI0
aI1
aI1
aa(lp297
I0
aI1
aI0
aI0
aI0
aI1
aI0
aa(lp298
I0
aI1
aI0
aI0
aI0
aI1
aI0
aa.