(lp0
F0.38742048900000015
aF0.43046721000000016
aF0.43046721000000016
aF0.43046721000000016
aF0.43046721000000016
aF0.43046721000000016
aF0.43046721000000016
aF0.47829690000000014
aF0.47829690000000014
aF0.47829690000000014
aF0.5314410000000002
aF0.5314410000000002
aF0.5314410000000002
aF0.5314410000000002
aF0.5314410000000002
aF0.5904900000000002
aF0.5904900000000002
aF0.5904900000000002
aF0.6561000000000001
aF0.6561000000000001
aF0.6561000000000001
aF0.6561000000000001
aF0.6561000000000001
aF0.6561000000000001
aF0.6561000000000001
aF0.6561000000000001
aF0.6561000000000001
aF0.6561000000000001
aF0.7290000000000001
aF0.7290000000000001
aF0.7290000000000001
aF0.81
aF0.9
aF0.9
aF0.9
aF0.9
aF0.9
a.