(lp0
F0.9910359161258742
aF0.9910359161258742
aF0.993020965034979
aF0.993020965034979
aF0.993020965034979
aF0.993020965034979
aF0.993020965034979
aF0.993020965034979
aF0.994014980014994
aF0.994014980014994
aF0.994014980014994
aF0.994014980014994
aF0.995009990004999
aF0.995009990004999
aF0.995009990004999
aF0.995009990004999
aF0.995009990004999
aF0.995009990004999
aF0.996005996001
aF0.996005996001
aF0.996005996001
aF0.996005996001
aF0.997002999
aF0.997002999
a.