(lp0
F0.9792086759647052
aF0.9792086759647052
aF0.9792086759647052
aF0.9792086759647052
aF0.9792086759647052
aF0.9792086759647052
aF0.9792086759647052
aF0.9792086759647052
aF0.9801888648295347
aF0.9801888648295347
aF0.9811700348643991
aF0.9811700348643991
aF0.9811700348643991
aF0.9811700348643991
aF0.9811700348643991
aF0.9821521870514506
aF0.9821521870514506
aF0.9821521870514506
aF0.9821521870514506
aF0.9821521870514506
aF0.9821521870514506
aF0.9821521870514506
aF0.9831353223738244
aF0.9831353223738244
aF0.9831353223738244
aF0.9831353223738244
aF0.9831353223738244
aF0.9831353223738244
aF0.9831353223738244
aF0.9831353223738244
aF0.9831353223738244
aF0.9831353223738244
aF0.9831353223738244
aF0.9831353223738244
aF0.9831353223738244
aF0.98411944181564
aF0.98411944181564
aF0.98411944181564
aF0.98411944181564
aF0.98411944181564
aF0.98411944181564
aF0.98411944181564
aF0.98411944181564
aF0.98411944181564
aF0.98411944181564
aF0.9851045463620021
aF0.9851045463620021
aF0.9851045463620021
aF0.9851045463620021
aF0.9851045463620021
aF0.9851045463620021
aF0.9851045463620021
aF0.9851045463620021
aF0.9851045463620021
aF0.9851045463620021
aF0.9851045463620021
aF0.9851045463620021
aF0.9851045463620021
aF0.9851045463620021
aF0.9851045463620021
aF0.9851045463620021
aF0.9851045463620021
aF0.9851045463620021
aF0.9851045463620021
aF0.9851045463620021
aF0.9851045463620021
aF0.9851045463620021
aF0.9851045463620021
aF0.9851045463620021
aF0.9851045463620021
aF0.9851045463620021
aF0.9851045463620021
aF0.9851045463620021
aF0.9851045463620021
aF0.9851045463620021
aF0.9851045463620021
aF0.9851045463620021
aF0.9851045463620021
aF0.9851045463620021
aF0.9851045463620021
aF0.9851045463620021
aF0.9851045463620021
aF0.9851045463620021
aF0.9851045463620021
aF0.986090636999001
aF0.986090636999001
aF0.986090636999001
aF0.986090636999001
aF0.986090636999001
aF0.986090636999001
aF0.986090636999001
aF0.986090636999001
aF0.986090636999001
aF0.986090636999001
aF0.986090636999001
aF0.986090636999001
aF0.986090636999001
aF0.986090636999001
aF0.986090636999001
aF0.986090636999001
aF0.986090636999001
aF0.986090636999001
aF0.986090636999001
aF0.986090636999001
aF0.9870777147137147
aF0.9870777147137147
aF0.9870777147137147
aF0.9870777147137147
aF0.9870777147137147
aF0.9870777147137147
aF0.9870777147137147
aF0.9870777147137147
aF0.9870777147137147
aF0.9870777147137147
aF0.9870777147137147
aF0.9870777147137147
aF0.9870777147137147
aF0.9870777147137147
aF0.9870777147137147
aF0.9870777147137147
aF0.9870777147137147
aF0.9870777147137147
aF0.9870777147137147
aF0.9870777147137147
aF0.988065780494209
aF0.988065780494209
aF0.988065780494209
aF0.988065780494209
aF0.988065780494209
aF0.988065780494209
aF0.988065780494209
aF0.988065780494209
aF0.988065780494209
aF0.988065780494209
aF0.988065780494209
aF0.988065780494209
aF0.988065780494209
aF0.988065780494209
aF0.988065780494209
aF0.988065780494209
aF0.988065780494209
aF0.988065780494209
aF0.988065780494209
aF0.988065780494209
aF0.988065780494209
aF0.988065780494209
aF0.988065780494209
aF0.988065780494209
aF0.988065780494209
aF0.988065780494209
aF0.988065780494209
aF0.988065780494209
aF0.988065780494209
aF0.988065780494209
aF0.988065780494209
aF0.988065780494209
aF0.988065780494209
aF0.9890548353295385
aF0.9890548353295385
aF0.9890548353295385
aF0.9890548353295385
aF0.9890548353295385
aF0.9890548353295385
aF0.9890548353295385
aF0.9890548353295385
aF0.9890548353295385
aF0.9890548353295385
aF0.9890548353295385
aF0.9890548353295385
aF0.9890548353295385
aF0.9890548353295385
aF0.9900448802097482
aF0.9900448802097482
aF0.9900448802097482
aF0.9900448802097482
aF0.9900448802097482
aF0.9900448802097482
aF0.9900448802097482
aF0.9900448802097482
aF0.9900448802097482
aF0.9900448802097482
aF0.9900448802097482
aF0.9900448802097482
aF0.9900448802097482
aF0.9900448802097482
aF0.9900448802097482
aF0.9900448802097482
aF0.9900448802097482
aF0.9900448802097482
aF0.9900448802097482
aF0.9910359161258742
aF0.9910359161258742
aF0.9910359161258742
aF0.9910359161258742
aF0.9910359161258742
aF0.9910359161258742
aF0.9910359161258742
aF0.9910359161258742
aF0.9910359161258742
aF0.9910359161258742
aF0.9910359161258742
aF0.9910359161258742
aF0.9910359161258742
aF0.9910359161258742
aF0.9910359161258742
aF0.9910359161258742
aF0.9910359161258742
aF0.9920279440699441
aF0.9920279440699441
aF0.9920279440699441
aF0.9920279440699441
aF0.9920279440699441
aF0.9920279440699441
aF0.9920279440699441
aF0.9920279440699441
aF0.9920279440699441
aF0.9920279440699441
aF0.993020965034979
aF0.993020965034979
aF0.993020965034979
aF0.993020965034979
aF0.993020965034979
aF0.993020965034979
aF0.993020965034979
aF0.993020965034979
aF0.993020965034979
aF0.993020965034979
aF0.994014980014994
aF0.994014980014994
aF0.994014980014994
aF0.994014980014994
aF0.995009990004999
aF0.995009990004999
aF0.995009990004999
aF0.997002999
aF0.997002999
aF0.997002999
aF0.998001
aF0.998001
aF0.999
aF0.999
aF0.999
aF0.999
a.