(lp0
F0.988065780494209
aF0.988065780494209
aF0.988065780494209
aF0.988065780494209
aF0.988065780494209
aF0.988065780494209
aF0.9890548353295385
aF0.9890548353295385
aF0.9890548353295385
aF0.9890548353295385
aF0.9890548353295385
aF0.9890548353295385
aF0.9890548353295385
aF0.9890548353295385
aF0.9890548353295385
aF0.9890548353295385
aF0.9890548353295385
aF0.9890548353295385
aF0.9890548353295385
aF0.9890548353295385
aF0.9890548353295385
aF0.9890548353295385
aF0.9900448802097482
aF0.9900448802097482
aF0.9900448802097482
aF0.9900448802097482
aF0.9900448802097482
aF0.9900448802097482
aF0.9900448802097482
aF0.9900448802097482
aF0.9900448802097482
aF0.9900448802097482
aF0.9900448802097482
aF0.9900448802097482
aF0.9900448802097482
aF0.9900448802097482
aF0.9910359161258742
aF0.9910359161258742
aF0.9910359161258742
aF0.9910359161258742
aF0.9910359161258742
aF0.9910359161258742
aF0.9910359161258742
aF0.9910359161258742
aF0.9910359161258742
aF0.9910359161258742
aF0.9910359161258742
aF0.9910359161258742
aF0.9910359161258742
aF0.9910359161258742
aF0.9910359161258742
aF0.9910359161258742
aF0.9910359161258742
aF0.9910359161258742
aF0.9910359161258742
aF0.9910359161258742
aF0.9920279440699441
aF0.9920279440699441
aF0.9920279440699441
aF0.9920279440699441
aF0.9920279440699441
aF0.9920279440699441
aF0.9920279440699441
aF0.9920279440699441
aF0.9920279440699441
aF0.9920279440699441
aF0.9920279440699441
aF0.9920279440699441
aF0.9920279440699441
aF0.9920279440699441
aF0.9920279440699441
aF0.9920279440699441
aF0.993020965034979
aF0.993020965034979
aF0.993020965034979
aF0.993020965034979
aF0.993020965034979
aF0.993020965034979
aF0.993020965034979
aF0.993020965034979
aF0.993020965034979
aF0.993020965034979
aF0.994014980014994
aF0.994014980014994
aF0.994014980014994
aF0.994014980014994
aF0.994014980014994
aF0.994014980014994
aF0.994014980014994
aF0.994014980014994
aF0.994014980014994
aF0.994014980014994
aF0.994014980014994
aF0.994014980014994
aF0.994014980014994
aF0.995009990004999
aF0.995009990004999
aF0.995009990004999
aF0.995009990004999
aF0.995009990004999
aF0.996005996001
aF0.997002999
aF0.998001
aF0.999
a.