(lp0
(lp1
(lp2
I11
aS'off'
p3
aa(lp4
I8
aS'off'
p5
aa(lp6
I5
aS'off'
p7
aa(lp8
I3
aS'on'
p9
aa(lp10
I2
aS'on'
p11
aa(lp12
I9
aS'on'
p13
aa(lp14
I1
aS'on'
p15
aa(lp16
I10
aS'on'
p17
aa(lp18
I4
aS'on'
p19
aa(lp20
I6
aS'on'
p21
aa(lp22
I7
aS'off'
p23
aa(lp24
I8
aS'off'
p25
aa(lp26
I12
aS'off'
p27
aaa(lp28
(lp29
I6
aS'off'
p30
aa(lp31
I7
ag23
aa(lp32
I8
aS'on'
p33
aa(lp34
I5
ag7
aa(lp35
I3
ag9
aa(lp36
I2
ag11
aa(lp37
I9
ag13
aa(lp38
I1
ag15
aa(lp39
I10
ag17
aa(lp40
I4
aS'off'
p41
aa(lp42
I5
aS'off'
p43
aa(lp44
I12
ag27
aaa(lp45
(lp46
I10
aS'off'
p47
aa(lp48
I4
ag41
aa(lp49
I5
aS'on'
p50
aa(lp51
I3
ag9
aa(lp52
I2
ag11
aa(lp53
I9
ag13
aa(lp54
I1
aS'off'
p55
aa(lp56
I4
aS'off'
p57
aa(lp58
I6
ag21
aa(lp59
I7
ag23
aa(lp60
I8
ag25
aa(lp61
I12
ag27
aaa(lp62
g2
ag4
ag6
ag8
a(lp63
I2
aS'off'
p64
aa(lp65
I1
aS'off'
p66
aa(lp67
I10
ag17
aa(lp68
I4
ag19
aa(lp69
I6
ag21
aa(lp70
I7
ag23
aa(lp71
I8
ag25
aa(lp72
I12
ag27
aaa(lp73
g2
ag4
ag6
ag8
ag63
ag65
ag67
ag68
ag69
a(lp74
I7
aS'on'
p75
aa(lp76
I2
aS'off'
p77
aa(lp78
I9
aS'off'
p79
aaa(lp80
g2
ag4
ag6
ag8
ag10
ag12
a(lp81
I1
ag55
aa(lp82
I4
ag57
aa(lp83
I6
ag21
aa(lp84
I7
ag23
aa(lp85
I8
ag25
aa(lp86
I12
ag27
aaa(lp87
(lp88
I11
aS'on'
p89
aa(lp90
I7
aS'on'
p91
aa(lp92
I8
ag33
aa(lp93
I5
ag7
aa(lp94
I3
ag9
aa(lp95
I2
ag11
aa(lp96
I9
ag13
aa(lp97
I1
ag15
aa(lp98
I10
ag17
aa(lp99
I4
ag41
aa(lp100
I5
ag43
aa(lp101
I12
ag27
aaa(lp102
(lp103
I3
aS'off'
p104
aa(lp105
I2
ag11
aa(lp106
I9
ag13
aa(lp107
I1
ag15
aa(lp108
I10
ag17
aa(lp109
I4
ag19
aa(lp110
I6
ag21
aa(lp111
I7
ag23
aa(lp112
I8
ag33
aa(lp113
I5
ag7
aa(lp114
I3
aS'off'
p115
aaa(lp116
g29
ag31
ag32
ag34
ag35
a(lp117
I2
ag64
aa(lp118
I1
ag66
aa(lp119
I10
ag17
aa(lp120
I4
ag41
aa(lp121
I5
ag43
aa(lp122
I12
ag27
aaa(lp123
g29
ag31
ag32
ag34
ag35
ag36
ag37
a(lp124
I1
ag55
aa(lp125
I4
aS'on'
p126
aa(lp127
I5
ag43
aa(lp128
I12
ag27
aaa(lp129
g29
ag31
ag32
ag34
ag35
ag36
ag37
ag38
ag39
a(lp130
I4
ag19
aa(lp131
I6
aS'off'
p132
aaa(lp133
(lp134
I9
aS'off'
p135
aa(lp136
I1
ag55
aa(lp137
I4
ag57
aa(lp138
I6
ag21
aa(lp139
I7
ag23
aa(lp140
I8
ag33
aa(lp141
I5
ag7
aa(lp142
I3
ag9
aa(lp143
I2
ag64
aa(lp144
I1
ag66
aa(lp145
I10
aS'off'
p146
aaa(lp147
g134
a(lp148
I1
ag15
aa(lp149
I10
ag17
aa(lp150
I4
ag19
aa(lp151
I6
ag21
aa(lp152
I7
ag23
aa(lp153
I8
ag33
aa(lp154
I5
ag7
aa(lp155
I3
ag9
aa(lp156
I2
ag11
aa(lp157
I9
ag79
aaa(lp158
g46
ag48
ag49
ag51
a(lp159
I2
ag64
aa(lp160
I1
aS'on'
p161
aa(lp162
I4
ag57
aa(lp163
I6
ag21
aa(lp164
I7
ag23
aa(lp165
I8
ag25
aa(lp166
I12
ag27
aaa(lp167
g46
a(lp168
I4
ag19
aa(lp169
I6
ag21
aa(lp170
I7
ag23
aa(lp171
I8
ag33
aa(lp172
I5
ag7
aa(lp173
I3
ag9
aa(lp174
I2
ag11
aa(lp175
I9
ag13
aa(lp176
I1
ag15
aa(lp177
I10
ag146
aaa(lp178
g2
ag4
ag6
ag8
ag63
a(lp179
I1
ag161
aa(lp180
I4
ag57
aa(lp181
I6
ag21
aa(lp182
I7
ag23
aa(lp183
I8
ag25
aa(lp184
I12
ag27
aaa(lp185
g2
ag4
ag6
ag8
ag63
ag179
ag180
ag181
a(lp186
I7
ag75
aa(lp187
I2
ag77
aa(lp188
I9
ag79
aaa(lp189
g2
ag4
ag6
ag8
ag10
ag12
ag14
ag16
a(lp190
I4
ag41
aa(lp191
I5
ag43
aa(lp192
I12
ag27
aaa(lp193
g88
ag90
ag92
ag93
ag94
a(lp194
I2
ag64
aa(lp195
I1
ag66
aa(lp196
I10
ag17
aa(lp197
I4
ag41
aa(lp198
I5
ag43
aa(lp199
I12
ag27
aaa(lp200
g88
ag90
ag92
ag93
ag94
ag95
ag96
a(lp201
I1
ag55
aa(lp202
I4
ag126
aa(lp203
I5
ag43
aa(lp204
I12
ag27
aaa(lp205
g103
a(lp206
I2
ag64
aa(lp207
I1
ag66
aa(lp208
I10
ag17
aa(lp209
I4
ag19
aa(lp210
I6
ag21
aa(lp211
I7
ag23
aa(lp212
I8
ag33
aa(lp213
I5
ag7
aa(lp214
I3
ag115
aaa(lp215
g103
ag105
ag106
a(lp216
I1
ag55
aa(lp217
I4
ag57
aa(lp218
I6
ag21
aa(lp219
I7
ag23
aa(lp220
I8
ag33
aa(lp221
I5
ag7
aa(lp222
I3
ag115
aaa(lp223
g29
ag31
ag32
ag34
ag35
ag117
ag118
ag119
a(lp224
I4
ag19
aa(lp225
I6
ag132
aaa(lp226
g29
ag31
ag32
ag34
ag35
ag117
a(lp227
I1
ag161
aa(lp228
I4
ag126
aa(lp229
I5
ag43
aa(lp230
I12
ag27
aaa(lp231
g29
ag31
ag32
ag34
ag35
ag36
ag37
ag124
a(lp232
I4
ag57
aa(lp233
I6
ag132
aaa(lp234
g134
ag136
ag137
ag138
ag139
ag140
ag141
ag142
a(lp235
I2
ag11
aa(lp236
I9
ag79
aaa(lp237
g46
ag168
ag169
ag170
ag171
ag172
ag173
a(lp238
I2
ag64
aa(lp239
I1
ag66
aa(lp240
I10
ag146
aaa(lp241
g2
ag4
ag6
ag8
ag63
ag65
ag67
a(lp242
I4
ag41
aa(lp243
I5
ag43
aa(lp244
I12
ag27
aaa(lp245
g2
ag4
ag6
ag8
ag10
ag12
ag81
a(lp246
I4
ag126
aa(lp247
I5
ag43
aa(lp248
I12
ag27
aaa(lp249
g88
ag90
ag92
ag93
ag94
ag194
a(lp250
I1
ag161
aa(lp251
I4
ag126
aa(lp252
I5
ag43
aa(lp253
I12
ag27
aaa(lp254
g103
ag206
ag207
ag208
ag209
ag210
a(lp255
I7
ag75
aa(lp256
I2
ag77
aa(lp257
I9
ag79
aaa(lp258
g103
ag206
a(lp259
I1
ag161
aa(lp260
I4
ag57
aa(lp261
I6
ag21
aa(lp262
I7
ag23
aa(lp263
I8
ag33
aa(lp264
I5
ag7
aa(lp265
I3
ag115
aaa(lp266
g29
ag31
ag32
ag34
ag35
ag117
ag227
a(lp267
I4
ag57
aa(lp268
I6
ag132
aaa(lp269
g29
a(lp270
I7
ag75
aa(lp271
I2
ag77
aa(lp272
I9
ag13
aa(lp273
I1
ag15
aa(lp274
I10
ag17
aa(lp275
I4
ag41
aa(lp276
I5
ag43
aa(lp277
I12
ag27
aaa(lp278
g29
ag270
ag271
ag272
ag273
ag274
ag275
a(lp279
I5
ag50
aa(lp280
I3
ag115
aaa(lp281
g134
ag148
ag149
ag150
ag151
ag152
ag153
a(lp282
I5
aS'on'
p283
aa(lp284
I12
ag27
aaa(lp285
g46
ag48
ag49
ag51
ag52
ag53
ag54
ag56
a(lp286
I6
ag132
aaa(lp287
g2
ag4
ag6
ag8
ag63
ag179
a(lp288
I4
ag126
aa(lp289
I5
ag43
aa(lp290
I12
ag27
aaa(lp291
g88
a(lp292
I7
aS'off'
p293
aa(lp294
I2
ag77
aa(lp295
I9
ag13
aa(lp296
I1
ag15
aa(lp297
I10
ag17
aa(lp298
I4
ag41
aa(lp299
I5
ag43
aa(lp300
I12
ag27
aaa(lp301
g88
ag292
ag294
ag295
ag296
ag297
ag298
a(lp302
I5
ag50
aa(lp303
I3
ag115
aaa(lp304
g88
ag90
ag92
ag93
ag94
ag95
ag96
ag97
a(lp305
I10
ag146
aaa(lp306
g103
ag206
ag259
ag260
ag261
a(lp307
I7
ag75
aa(lp308
I2
ag77
aa(lp309
I9
ag79
aaa(lp310
g103
ag105
ag106
ag107
ag108
a(lp311
I4
ag41
aa(lp312
I5
ag50
aa(lp313
I3
ag115
aaa(lp314
g29
ag270
ag271
ag272
a(lp315
I1
ag55
aa(lp316
I4
ag126
aa(lp317
I5
ag43
aa(lp318
I12
ag27
aaa(lp319
g29
ag270
ag271
ag272
ag315
ag316
a(lp320
I5
ag50
aa(lp321
I3
ag115
aaa(lp322
g29
ag270
ag271
ag272
ag273
ag274
a(lp323
I4
ag19
aa(lp324
I6
ag132
aaa(lp325
g29
ag270
a(lp326
I2
aS'on'
p327
aa(lp328
I1
ag66
aa(lp329
I10
ag17
aa(lp330
I4
ag41
aa(lp331
I5
ag43
aa(lp332
I12
ag27
aaa(lp333
g29
ag270
ag326
ag328
ag329
ag330
a(lp334
I5
ag50
aa(lp335
I3
ag115
aaa(lp336
g134
ag136
ag137
ag138
ag139
ag140
a(lp337
I5
ag283
aa(lp338
I12
ag27
aaa(lp339
g134
ag136
ag137
ag138
a(lp340
I7
ag75
aa(lp341
I2
ag327
aa(lp342
I1
ag66
aa(lp343
I10
ag146
aaa(lp344
g134
ag136
a(lp345
I4
ag126
aa(lp346
I5
ag50
aa(lp347
I3
ag9
aa(lp348
I2
ag64
aa(lp349
I1
ag66
aa(lp350
I10
ag146
aaa(lp351
g134
ag148
ag149
a(lp352
I4
ag41
aa(lp353
I5
ag50
aa(lp354
I3
ag9
aa(lp355
I2
ag11
aa(lp356
I9
ag79
aaa(lp357
g134
ag148
ag149
ag150
ag151
ag152
a(lp358
I8
ag25
aa(lp359
I12
ag27
aaa(lp360
g134
ag148
ag149
ag150
ag151
a(lp361
I7
ag75
aa(lp362
I2
ag77
aa(lp363
I9
ag79
aaa(lp364
g46
ag48
ag49
ag51
ag159
ag160
ag162
a(lp365
I6
ag132
aaa(lp366
g46
ag48
ag49
ag51
ag52
ag53
a(lp367
I1
ag15
aa(lp368
I10
ag146
aaa(lp369
g46
ag168
ag169
a(lp370
I7
ag75
aa(lp371
I2
ag77
aa(lp372
I9
ag13
aa(lp373
I1
ag15
aa(lp374
I10
ag146
aaa(lp375
g2
ag4
ag6
ag8
ag10
ag12
ag14
a(lp376
I10
ag146
aaa(lp377
g88
ag292
ag294
ag295
a(lp378
I1
ag55
aa(lp379
I4
ag126
aa(lp380
I5
ag43
aa(lp381
I12
ag27
aaa(lp382
g88
ag292
ag294
ag295
ag378
ag379
a(lp383
I5
ag50
aa(lp384
I3
ag115
aaa(lp385
g88
ag292
a(lp386
I2
ag327
aa(lp387
I1
ag66
aa(lp388
I10
ag17
aa(lp389
I4
ag41
aa(lp390
I5
ag43
aa(lp391
I12
ag27
aaa(lp392
g88
ag292
ag386
ag387
ag388
ag389
a(lp393
I5
ag50
aa(lp394
I3
ag115
aaa(lp395
g88
ag90
ag92
ag93
ag94
ag194
ag195
a(lp396
I10
ag146
aaa(lp397
g103
ag206
ag207
ag208
a(lp398
I4
ag41
aa(lp399
I5
ag50
aa(lp400
I3
ag115
aaa(lp401
g103
ag105
ag106
ag216
a(lp402
I4
ag126
aa(lp403
I5
ag50
aa(lp404
I3
ag115
aaa(lp405
g103
ag105
ag106
ag107
ag108
ag109
a(lp406
I6
ag132
aaa(lp407
g29
ag31
ag32
ag34
ag35
ag36
a(lp408
I9
ag79
aaa(lp409
g29
ag270
ag271
ag272
ag315
a(lp410
I4
ag57
aa(lp411
I6
ag132
aaa(lp412
g29
ag270
ag326
ag328
ag329
a(lp413
I4
ag19
aa(lp414
I6
ag132
aaa(lp415
g29
ag270
ag326
a(lp416
I1
ag161
aa(lp417
I4
ag126
aa(lp418
I5
ag43
aa(lp419
I12
ag27
aaa(lp420
g29
ag270
ag326
ag416
ag417
a(lp421
I5
ag50
aa(lp422
I3
ag115
aaa(lp423
g134
ag136
ag137
ag138
ag139
a(lp424
I8
ag25
aa(lp425
I12
ag27
aaa(lp426
g134
ag136
ag137
ag138
ag340
a(lp427
I2
ag77
aa(lp428
I9
ag79
aaa(lp429
g134
ag136
ag345
ag346
ag347
a(lp430
I2
ag11
aa(lp431
I9
ag79
aaa(lp432
g46
ag48
ag49
ag51
ag159
a(lp433
I1
ag66
aa(lp434
I10
ag146
aaa(lp435
g46
ag168
ag169
ag170
ag171
ag172
a(lp436
I3
ag115
aaa(lp437
g46
ag168
ag169
ag170
ag171
a(lp438
I5
ag283
aa(lp439
I12
ag27
aaa(lp440
g46
ag168
ag169
ag370
a(lp441
I2
ag327
aa(lp442
I1
ag66
aa(lp443
I10
ag146
aaa(lp444
g2
ag4
ag6
ag8
ag63
ag65
a(lp445
I10
ag146
aaa(lp446
g88
ag292
ag386
a(lp447
I1
ag161
aa(lp448
I4
ag126
aa(lp449
I5
ag43
aa(lp450
I12
ag27
aaa(lp451
g88
ag292
ag386
ag447
ag448
a(lp452
I5
ag50
aa(lp453
I3
ag115
aaa(lp454
g88
ag90
ag92
ag93
ag94
ag95
a(lp455
I9
ag79
aaa(lp456
g103
ag206
ag207
ag208
ag209
a(lp457
I6
ag132
aaa(lp458
g103
ag206
ag259
a(lp459
I4
ag126
aa(lp460
I5
ag50
aa(lp461
I3
ag115
aaa(lp462
g103
ag105
ag106
ag216
ag217
a(lp463
I6
ag132
aaa(lp464
g29
ag270
ag326
ag416
a(lp465
I4
ag57
aa(lp466
I6
ag132
aaa(lp467
g134
ag148
ag149
ag352
a(lp468
I5
ag43
aa(lp469
I12
ag27
aaa(lp470
g46
ag168
ag169
ag170
a(lp471
I8
ag25
aa(lp472
I12
ag27
aaa(lp473
g2
ag4
ag6
ag8
ag10
a(lp474
I9
ag79
aaa(lp475
g88
ag292
ag294
ag295
ag296
a(lp476
I10
ag146
aaa(lp477
g103
ag206
ag259
ag260
a(lp478
I6
ag132
aaa(lp479
g103
ag105
ag106
ag107
a(lp480
I10
ag146
aaa(lp481
g29
ag31
ag32
ag34
a(lp482
I3
ag115
aaa(lp483
g29
ag31
ag32
a(lp484
I5
ag283
aa(lp485
I12
ag27
aaa(lp486
g134
ag136
ag345
a(lp487
I5
ag43
aa(lp488
I12
ag27
aaa(lp489
g134
ag148
ag149
ag150
a(lp490
I6
ag132
aaa(lp491
g88
ag292
ag386
ag387
a(lp492
I10
ag146
aaa(lp493
g88
ag90
ag92
ag93
a(lp494
I3
ag115
aaa(lp495
g88
ag90
ag92
a(lp496
I5
ag283
aa(lp497
I12
ag27
aaa(lp498
g103
ag206
ag207
a(lp499
I10
ag146
aaa(lp500
g29
ag31
a(lp501
I8
ag25
aa(lp502
I12
ag27
aaa(lp503
g29
ag270
ag271
a(lp504
I9
ag79
aaa(lp505
g134
ag136
ag137
a(lp506
I6
ag132
aaa(lp507
g46
ag48
a(lp508
I5
ag43
aa(lp509
I12
ag27
aaa(lp510
g46
ag48
ag49
a(lp511
I3
ag115
aaa(lp512
g2
ag4
ag6
a(lp513
I3
ag115
aaa(lp514
g2
ag4
a(lp515
I5
ag283
aa(lp516
I12
ag27
aaa(lp517
g88
ag292
ag294
a(lp518
I9
ag79
aaa(lp519
g88
ag90
a(lp520
I8
ag25
aa(lp521
I12
ag27
aaa(lp522
g103
ag105
a(lp523
I9
ag79
aaa(lp524
g134
ag148
a(lp525
I10
ag146
aaa(lp526
g46
ag168
a(lp527
I6
ag132
aaa(lp528
g2
a(lp529
I8
aS'on'
p530
aa(lp531
I12
ag27
aaa(lp532
(lp533
I3
aS'on'
p534
aaa(lp535
(lp536
I6
aS'on'
p537
aaa(lp538
(lp539
I9
aS'on'
p540
aaa.