(lp0
(lp1
I2
aI4
aI0
aI3
aI6
aI2
aI1
aa(lp2
I2
aI6
aI0
aI3
aI5
aI2
aI1
aa(lp3
I2
aI6
aI0
aI5
aI3
aI2
aI1
aa(lp4
I3
aI4
aI0
aI3
aI5
aI2
aI1
aa(lp5
I3
aI4
aI0
aI5
aI3
aI2
aI1
aa(lp6
I1
aI4
aI0
aI2
aI6
aI1
aI1
aa(lp7
I1
aI4
aI0
aI4
aI4
aI2
aI0
aa(lp8
I1
aI4
aI0
aI4
aI4
aI2
aI0
aa(lp9
I1
aI4
aI0
aI6
aI2
aI1
aI1
aa(lp10
I2
aI2
aI0
aI2
aI6
aI2
aI0
aa(lp11
I2
aI2
aI0
aI4
aI4
aI1
aI1
aa(lp12
I2
aI2
aI0
aI4
aI4
aI1
aI1
aa(lp13
I2
aI2
aI0
aI6
aI2
aI2
aI0
aa(lp14
I0
aI2
aI0
aI3
aI5
aI1
aI0
aa(lp15
I0
aI2
aI0
aI5
aI3
aI1
aI0
aa(lp16
I0
aI4
aI0
aI3
aI4
aI0
aI2
aa(lp17
I1
aI0
aI0
aI3
aI5
aI1
aI0
aa(lp18
I1
aI0
aI0
aI5
aI3
aI1
aI0
aa(lp19
I1
aI2
aI0
aI4
aI3
aI0
aI2
aa(lp20
I1
aI3
aI0
aI4
aI3
aI0
aI2
aa(lp21
I1
aI4
aI0
aI1
aI5
aI1
aI2
aa(lp22
I1
aI4
aI0
aI3
aI3
aI2
aI1
aa(lp23
I2
aI2
aI0
aI1
aI5
aI2
aI1
aa(lp24
I2
aI2
aI0
aI3
aI3
aI1
aI2
aa(lp25
I0
aI2
aI0
aI2
aI4
aI1
aI1
aa(lp26
I0
aI2
aI0
aI4
aI2
aI1
aI1
aa(lp27
I1
aI0
aI0
aI2
aI4
aI1
aI1
aa(lp28
I1
aI0
aI0
aI4
aI2
aI1
aI1
aa(lp29
I1
aI4
aI0
aI3
aI3
aI0
aI2
aa(lp30
I1
aI4
aI0
aI3
aI3
aI1
aI1
aa(lp31
I2
aI2
aI0
aI4
aI2
aI1
aI1
aa(lp32
I2
aI3
aI0
aI4
aI2
aI0
aI2
aa(lp33
I2
aI4
aI0
aI1
aI4
aI2
aI1
aa(lp34
I0
aI0
aI0
aI3
aI2
aI0
aI2
aa(lp35
I1
aI0
aI0
aI3
aI3
aI0
aI1
aa(lp36
I1
aI1
aI0
aI3
aI3
aI0
aI1
aa(lp37
I2
aI4
aI0
aI3
aI2
aI1
aI1
aa(lp38
I2
aI6
aI0
aI1
aI3
aI2
aI1
aa(lp39
I3
aI4
aI0
aI1
aI3
aI2
aI1
aa(lp40
I0
aI2
aI0
aI1
aI3
aI0
aI2
aa(lp41
I0
aI2
aI0
aI1
aI3
aI0
aI2
aa(lp42
I1
aI0
aI0
aI2
aI2
aI0
aI2
aa(lp43
I1
aI0
aI0
aI3
aI3
aI0
aI0
aa(lp44
I1
aI0
aI0
aI3
aI3
aI0
aI0
aa(lp45
I1
aI1
aI0
aI2
aI2
aI0
aI2
aa(lp46
I1
aI2
aI0
aI1
aI4
aI1
aI0
aa(lp47
I1
aI2
aI0
aI2
aI3
aI0
aI1
aa(lp48
I1
aI2
aI0
aI2
aI3
aI1
aI0
aa(lp49
I1
aI2
aI0
aI3
aI2
aI1
aI0
aa(lp50
I1
aI4
aI0
aI2
aI2
aI1
aI1
aa(lp51
I1
aI4
aI0
aI2
aI2
aI2
aI0
aa(lp52
I2
aI0
aI0
aI1
aI4
aI1
aI0
aa(lp53
I2
aI0
aI0
aI3
aI2
aI1
aI0
aa(lp54
I2
aI2
aI0
aI2
aI2
aI1
aI1
aa(lp55
I2
aI2
aI0
aI2
aI2
aI2
aI0
aa(lp56
I0
aI0
aI0
aI1
aI4
aI0
aI0
aa(lp57
I0
aI2
aI0
aI3
aI1
aI1
aI0
aa(lp58
I0
aI4
aI0
aI1
aI2
aI0
aI2
aa(lp59
I1
aI0
aI0
aI3
aI1
aI1
aI0
aa(lp60
I1
aI2
aI0
aI1
aI2
aI0
aI2
aa(lp61
I1
aI2
aI0
aI1
aI2
aI1
aI1
aa(lp62
I1
aI2
aI0
aI2
aI1
aI0
aI2
aa(lp63
I1
aI3
aI0
aI2
aI1
aI0
aI2
aa(lp64
I0
aI0
aI0
aI0
aI3
aI0
aI1
aa(lp65
I0
aI0
aI0
aI0
aI3
aI0
aI1
aa(lp66
I1
aI2
aI0
aI0
aI3
aI0
aI1
aa(lp67
I1
aI2
aI0
aI0
aI3
aI0
aI1
aa(lp68
I1
aI4
aI0
aI1
aI1
aI0
aI2
aa(lp69
I1
aI4
aI0
aI1
aI1
aI1
aI1
aa(lp70
I2
aI0
aI0
aI1
aI2
aI0
aI1
aa(lp71
I2
aI1
aI0
aI1
aI2
aI0
aI1
aa(lp72
I2
aI2
aI0
aI0
aI2
aI1
aI1
aa(lp73
I2
aI3
aI0
aI0
aI2
aI0
aI2
aa(lp74
I0
aI0
aI0
aI1
aI0
aI0
aI2
aa(lp75
I1
aI0
aI0
aI1
aI1
aI0
aI1
aa(lp76
I1
aI1
aI0
aI1
aI1
aI0
aI1
aa(lp77
I2
aI0
aI0
aI1
aI2
aI0
aI0
aa(lp78
I1
aI0
aI0
aI1
aI1
aI0
aI0
aa(lp79
I1
aI0
aI0
aI1
aI1
aI0
aI0
aa(lp80
I0
aI0
aI0
aI0
aI0
aI1
aI0
aa(lp81
I0
aI1
aI0
aI0
aI0
aI1
aI0
aa.