(lp0
F0.9135172474836407
aF0.9135172474836407
aF0.9320653479069899
aF0.9320653479069899
aF0.9320653479069899
aF0.9320653479069899
aF0.9320653479069899
aF0.9320653479069899
aF0.9414801494009999
aF0.9414801494009999
aF0.9414801494009999
aF0.9414801494009999
aF0.9509900498999999
aF0.9509900498999999
aF0.9509900498999999
aF0.9509900498999999
aF0.9509900498999999
aF0.9509900498999999
aF0.96059601
aF0.96059601
aF0.96059601
aF0.96059601
aF0.9702989999999999
aF0.9702989999999999
a.