(lp0
F0.8775210229989678
aF0.8863848717161291
aF0.8863848717161291
aF0.8863848717161291
aF0.8863848717161291
aF0.8863848717161291
aF0.8863848717161291
aF0.8953382542587163
aF0.8953382542587163
aF0.8953382542587163
aF0.8953382542587163
aF0.8953382542587163
aF0.8953382542587163
aF0.8953382542587163
aF0.8953382542587163
aF0.8953382542587163
aF0.8953382542587163
aF0.8953382542587163
aF0.8953382542587163
aF0.8953382542587163
aF0.9043820750088043
aF0.9043820750088043
aF0.9043820750088043
aF0.9043820750088043
aF0.9043820750088043
aF0.9043820750088043
aF0.9043820750088043
aF0.9043820750088043
aF0.9043820750088043
aF0.9043820750088043
aF0.9135172474836407
aF0.9135172474836407
aF0.9135172474836407
aF0.9135172474836407
aF0.9135172474836407
aF0.9135172474836407
aF0.9135172474836407
aF0.9135172474836407
aF0.9135172474836407
aF0.9135172474836407
aF0.9135172474836407
aF0.92274469442792
aF0.92274469442792
aF0.92274469442792
aF0.92274469442792
aF0.92274469442792
aF0.92274469442792
aF0.92274469442792
aF0.92274469442792
aF0.92274469442792
aF0.92274469442792
aF0.92274469442792
aF0.92274469442792
aF0.92274469442792
aF0.92274469442792
aF0.92274469442792
aF0.92274469442792
aF0.92274469442792
aF0.92274469442792
aF0.92274469442792
aF0.92274469442792
aF0.92274469442792
aF0.92274469442792
aF0.9320653479069899
aF0.9320653479069899
aF0.9320653479069899
aF0.9320653479069899
aF0.9320653479069899
aF0.9320653479069899
aF0.9320653479069899
aF0.9320653479069899
aF0.9320653479069899
aF0.9320653479069899
aF0.9320653479069899
aF0.9320653479069899
aF0.9320653479069899
aF0.9320653479069899
aF0.9320653479069899
aF0.9320653479069899
aF0.9320653479069899
aF0.9320653479069899
aF0.9320653479069899
aF0.9414801494009999
aF0.9414801494009999
aF0.9414801494009999
aF0.9414801494009999
aF0.9414801494009999
aF0.9414801494009999
aF0.9414801494009999
aF0.9414801494009999
aF0.9509900498999999
aF0.9509900498999999
aF0.9509900498999999
aF0.9509900498999999
aF0.9509900498999999
aF0.9509900498999999
aF0.9509900498999999
aF0.9509900498999999
aF0.9509900498999999
aF0.96059601
aF0.96059601
aF0.96059601
aF0.96059601
aF0.96059601
aF0.96059601
aF0.96059601
aF0.96059601
aF0.96059601
aF0.96059601
aF0.9702989999999999
aF0.9702989999999999
aF0.9702989999999999
aF0.9702989999999999
aF0.99
aF0.99
aF0.99
a.