(lp0
(lp1
(lp2
I12
aS'on'
p3
aa(lp4
I8
aS'off'
p5
aa(lp6
I5
aS'off'
p7
aa(lp8
I1
aS'on'
p9
aa(lp10
I3
aS'off'
p11
aa(lp12
I6
aS'off'
p13
aa(lp14
I9
aS'on'
p15
aa(lp16
I10
aS'on'
p17
aa(lp18
I7
aS'on'
p19
aa(lp20
I6
aS'off'
p21
aa(lp22
I5
aS'off'
p23
aa(lp24
I2
aS'off'
p25
aaa(lp26
g2
ag4
ag6
ag8
ag10
ag12
ag14
ag16
a(lp27
I7
aS'off'
p28
aa(lp29
I4
aS'on'
p30
aa(lp31
I11
aS'off'
p32
aaa(lp33
g2
ag4
a(lp34
I5
aS'on'
p35
aa(lp36
I2
aS'on'
p37
aa(lp38
I3
aS'on'
p39
aa(lp40
I6
ag13
aa(lp41
I9
ag15
aa(lp42
I10
ag17
aa(lp43
I7
ag28
aa(lp44
I4
ag30
aa(lp45
I11
ag32
aaa(lp46
g2
a(lp47
I8
aS'on'
p48
aa(lp49
I9
aS'off'
p50
aa(lp51
I10
ag17
aa(lp52
I7
ag19
aa(lp53
I6
ag21
aa(lp54
I5
ag23
aa(lp55
I2
ag37
aa(lp56
I3
aS'off'
p57
aa(lp58
I4
aS'off'
p59
aa(lp60
I11
ag32
aaa(lp61
g2
ag47
ag49
ag51
ag52
ag53
a(lp62
I5
aS'on'
p63
aa(lp64
I1
ag9
aa(lp65
I3
aS'on'
p66
aa(lp67
I4
ag59
aa(lp68
I11
ag32
aaa(lp69
(lp70
I8
aS'off'
p71
aa(lp72
I9
ag50
aa(lp73
I10
ag17
aa(lp74
I7
ag19
aa(lp75
I6
ag21
aa(lp76
I5
ag23
aa(lp77
I2
ag37
aa(lp78
I3
ag57
aa(lp79
I4
ag59
aa(lp80
I11
ag32
aaa(lp81
g70
ag72
ag73
ag74
ag75
a(lp82
I5
ag63
aa(lp83
I1
ag9
aa(lp84
I3
ag66
aa(lp85
I4
ag59
aa(lp86
I11
ag32
aaa(lp87
(lp88
I8
aS'on'
p89
aa(lp90
I5
ag7
aa(lp91
I1
ag9
aa(lp92
I3
ag11
aa(lp93
I6
ag13
aa(lp94
I9
ag15
aa(lp95
I10
ag17
aa(lp96
I7
ag28
aa(lp97
I4
ag30
aa(lp98
I11
ag32
aaa(lp99
g88
a(lp100
I5
ag35
aa(lp101
I2
ag37
aa(lp102
I3
ag39
aa(lp103
I6
ag13
aa(lp104
I9
ag15
aa(lp105
I10
ag17
aa(lp106
I7
ag28
aa(lp107
I4
ag30
aa(lp108
I11
ag32
aaa(lp109
g2
ag4
ag6
ag8
ag10
ag12
ag14
ag16
ag27
a(lp110
I4
aS'off'
p111
aaa(lp112
g2
ag4
ag34
ag36
ag38
ag40
ag41
ag42
ag43
a(lp113
I4
ag111
aaa(lp114
g2
ag47
ag49
ag51
ag52
ag53
ag54
ag55
ag56
a(lp115
I4
aS'on'
p116
aaa(lp117
g2
ag47
ag49
ag51
ag52
ag53
ag62
ag64
ag65
a(lp118
I4
ag116
aaa(lp119
(lp120
I1
aS'off'
p121
aa(lp122
I3
ag11
aa(lp123
I6
ag13
aa(lp124
I9
ag15
aa(lp125
I10
ag17
aa(lp126
I7
ag19
aa(lp127
I6
ag21
aa(lp128
I5
ag23
aa(lp129
I2
ag25
aaa(lp130
g120
ag122
ag123
ag124
ag125
ag126
ag127
a(lp131
I5
ag63
aa(lp132
I1
aS'off'
p133
aaa(lp134
(lp135
I2
aS'off'
p136
aa(lp137
I3
ag39
aa(lp138
I6
ag13
aa(lp139
I9
ag15
aa(lp140
I10
ag17
aa(lp141
I7
ag19
aa(lp142
I6
ag21
aa(lp143
I5
ag23
aa(lp144
I2
ag25
aaa(lp145
g70
ag72
ag73
ag74
ag75
ag76
ag77
ag78
a(lp146
I4
ag116
aaa(lp147
g70
ag72
ag73
ag74
ag75
ag82
ag83
ag84
a(lp148
I4
ag116
aaa(lp149
g88
ag90
ag91
ag92
ag93
ag94
ag95
ag96
a(lp150
I4
ag111
aaa(lp151
g88
ag100
ag101
ag102
ag103
ag104
ag105
ag106
a(lp152
I4
ag111
aaa(lp153
(lp154
I12
aS'off'
p155
aa(lp156
I10
aS'off'
p157
aa(lp158
I7
ag19
aa(lp159
I6
ag21
aa(lp160
I5
ag23
aa(lp161
I2
ag37
aa(lp162
I3
ag57
aa(lp163
I4
ag59
aa(lp164
I11
ag32
aaa(lp165
g154
ag156
ag158
ag159
a(lp166
I5
ag63
aa(lp167
I1
ag9
aa(lp168
I3
ag66
aa(lp169
I4
ag59
aa(lp170
I11
ag32
aaa(lp171
g2
ag4
ag6
ag8
ag10
ag12
ag14
a(lp172
I10
aS'off'
p173
aa(lp174
I11
ag32
aaa(lp175
g2
ag4
ag34
ag36
ag38
ag40
ag41
a(lp176
I10
ag173
aa(lp177
I11
ag32
aaa(lp178
g120
ag122
ag123
ag124
ag125
a(lp179
I7
ag28
aa(lp180
I4
ag30
aa(lp181
I11
ag32
aaa(lp182
g135
ag137
ag138
ag139
ag140
a(lp183
I7
ag28
aa(lp184
I4
ag30
aa(lp185
I11
ag32
aaa(lp186
g88
ag90
ag91
ag92
ag93
ag94
a(lp187
I10
ag173
aa(lp188
I11
ag32
aaa(lp189
g88
ag100
ag101
ag102
ag103
ag104
a(lp190
I10
ag173
aa(lp191
I11
ag32
aaa(lp192
g154
ag156
ag158
ag159
ag160
ag161
ag162
a(lp193
I4
ag116
aaa(lp194
g154
ag156
ag158
ag159
ag166
ag167
ag168
a(lp195
I4
ag116
aaa(lp196
g2
ag4
ag6
ag8
ag10
a(lp197
I6
aS'on'
p198
aa(lp199
I5
ag23
aa(lp200
I2
ag25
aaa(lp201
g2
ag47
ag49
ag51
ag52
ag53
ag54
a(lp202
I2
ag25
aaa(lp203
g2
ag47
ag49
ag51
ag52
ag53
ag62
a(lp204
I1
ag133
aaa(lp205
g135
ag137
ag138
ag139
ag140
ag183
a(lp206
I4
ag111
aaa(lp207
g70
ag72
ag73
ag74
ag75
ag82
a(lp208
I1
ag133
aaa(lp209
g154
ag156
ag158
a(lp210
I6
aS'on'
p211
aa(lp212
I9
ag15
aa(lp213
I10
ag173
aa(lp214
I11
ag32
aaa(lp215
g2
ag4
ag6
ag8
a(lp216
I3
ag66
aa(lp217
I4
ag59
aa(lp218
I11
ag32
aaa(lp219
g2
ag4
ag34
ag36
a(lp220
I3
ag57
aa(lp221
I4
ag59
aa(lp222
I11
ag32
aaa(lp223
g2
ag47
ag49
ag51
a(lp224
I7
ag28
aa(lp225
I4
ag30
aa(lp226
I11
ag32
aaa(lp227
g120
ag122
ag123
ag124
a(lp228
I10
ag173
aa(lp229
I11
ag32
aaa(lp230
g135
ag137
ag138
ag139
a(lp231
I10
ag173
aa(lp232
I11
ag32
aaa(lp233
(lp234
I7
aS'off'
p235
aa(lp236
I6
ag21
aa(lp237
I5
ag23
aa(lp238
I2
ag37
aa(lp239
I3
ag57
aa(lp240
I4
ag116
aaa(lp241
g234
ag236
a(lp242
I5
ag63
aa(lp243
I1
ag9
aa(lp244
I3
ag66
aa(lp245
I4
ag116
aaa(lp246
g234
a(lp247
I6
ag211
aa(lp248
I9
ag15
aa(lp249
I10
ag17
aa(lp250
I7
ag28
aa(lp251
I4
ag111
aaa(lp252
g70
ag72
ag73
a(lp253
I7
ag28
aa(lp254
I4
ag30
aa(lp255
I11
ag32
aaa(lp256
g70
ag72
ag73
ag74
a(lp257
I6
ag211
aa(lp258
I9
aS'off'
p259
aaa(lp260
g88
ag90
ag91
ag92
ag93
a(lp261
I9
ag259
aaa(lp262
g88
ag90
ag91
a(lp263
I3
ag66
aa(lp264
I4
ag59
aa(lp265
I11
ag32
aaa(lp266
g88
ag100
ag101
a(lp267
I3
ag57
aa(lp268
I4
ag59
aa(lp269
I11
ag32
aaa(lp270
g88
ag100
ag101
ag102
ag103
a(lp271
I9
ag259
aaa(lp272
g154
ag156
ag158
ag159
ag160
a(lp273
I2
ag25
aaa(lp274
g154
ag156
ag158
ag159
ag166
a(lp275
I1
ag133
aaa(lp276
g2
ag4
ag6
ag8
ag216
a(lp277
I4
ag116
aaa(lp278
g2
ag4
ag34
ag36
ag220
a(lp279
I4
ag116
aaa(lp280
g2
ag47
ag49
ag51
ag224
a(lp281
I4
ag111
aaa(lp282
g120
ag122
a(lp283
I6
ag198
aa(lp284
I5
ag23
aa(lp285
I2
ag25
aaa(lp286
g120
ag122
ag283
a(lp287
I5
ag63
aa(lp288
I1
ag133
aaa(lp289
g135
ag137
a(lp290
I6
ag198
aa(lp291
I5
ag23
aa(lp292
I2
ag25
aaa(lp293
g70
ag72
ag73
ag253
a(lp294
I4
ag111
aaa(lp295
g88
ag90
ag91
ag263
a(lp296
I4
ag116
aaa(lp297
g88
ag100
ag101
ag267
a(lp298
I4
ag116
aaa(lp299
g154
ag156
a(lp300
I7
ag28
aa(lp301
I4
ag30
aa(lp302
I11
ag32
aaa(lp303
g2
ag47
ag49
a(lp304
I10
ag173
aa(lp305
I11
ag32
aaa(lp306
g120
ag122
ag123
a(lp307
I9
ag259
aaa(lp308
g120
a(lp309
I3
ag66
aa(lp310
I4
ag59
aa(lp311
I11
ag32
aaa(lp312
g135
a(lp313
I3
ag57
aa(lp314
I4
ag59
aa(lp315
I11
ag32
aaa(lp316
g135
ag137
ag138
a(lp317
I9
ag259
aaa(lp318
g234
ag236
ag237
a(lp319
I2
ag25
aaa(lp320
g234
ag236
ag242
a(lp321
I1
ag133
aaa(lp322
g70
ag72
a(lp323
I10
ag173
aa(lp324
I11
ag32
aaa(lp325
g154
ag156
ag300
a(lp326
I4
ag111
aaa(lp327
g2
ag4
ag6
a(lp328
I1
ag133
aaa(lp329
g2
ag4
ag34
a(lp330
I2
ag25
aaa(lp331
g135
ag313
a(lp332
I4
ag116
aaa(lp333
g234
ag247
a(lp334
I9
ag259
aaa(lp335
g88
ag90
a(lp336
I1
ag133
aaa(lp337
g154
a(lp338
I10
aS'on'
p339
aa(lp340
I11
ag32
aaa(lp341
(lp342
I7
aS'on'
p343
aa(lp344
I4
ag111
aaa(lp345
g70
a(lp346
I9
aS'on'
p347
aaa(lp348
(lp349
I1
aS'on'
p350
aaa(lp351
(lp352
I2
aS'on'
p353
aaa.