(lp0
(lp1
(lp2
I8
aS'off'
p3
aa(lp4
I9
aS'off'
p5
aa(lp6
I10
aS'on'
p7
aa(lp8
I6
aS'on'
p9
aa(lp10
I5
aS'off'
p11
aa(lp12
I2
aS'on'
p13
aa(lp14
I3
aS'off'
p15
aa(lp16
I4
aS'off'
p17
aa(lp18
I11
aS'off'
p19
aaa(lp20
(lp21
I1
aS'off'
p22
aa(lp23
I3
aS'off'
p24
aa(lp25
I5
aS'off'
p26
aa(lp27
I9
aS'on'
p28
aa(lp29
I10
ag7
aa(lp30
I6
aS'off'
p31
aa(lp32
I4
aS'on'
p33
aa(lp34
I11
ag19
aaa(lp35
g21
ag23
ag25
ag27
ag29
a(lp36
I6
ag9
aa(lp37
I5
ag11
aa(lp38
I2
aS'off'
p39
aaa(lp40
(lp41
I2
aS'off'
p42
aa(lp43
I3
aS'on'
p44
aa(lp45
I5
ag26
aa(lp46
I9
ag28
aa(lp47
I10
ag7
aa(lp48
I6
ag31
aa(lp49
I4
ag33
aa(lp50
I11
ag19
aaa(lp51
g41
ag43
ag45
ag46
ag47
a(lp52
I6
ag9
aa(lp53
I5
ag11
aa(lp54
I2
ag39
aaa(lp55
g2
ag4
ag6
ag8
ag10
ag12
ag14
a(lp56
I4
aS'on'
p57
aaa(lp58
(lp59
I12
aS'off'
p60
aa(lp61
I10
aS'off'
p62
aa(lp63
I6
ag9
aa(lp64
I5
ag11
aa(lp65
I2
ag13
aa(lp66
I3
ag15
aa(lp67
I4
ag17
aa(lp68
I11
ag19
aaa(lp69
g41
ag43
ag45
ag46
ag47
ag48
a(lp70
I4
aS'off'
p71
aaa(lp72
g59
ag61
ag63
ag64
ag65
ag66
a(lp73
I4
ag57
aaa(lp74
g59
ag61
ag63
a(lp75
I5
aS'on'
p76
aa(lp77
I9
ag28
aa(lp78
I10
aS'off'
p79
aa(lp80
I11
ag19
aaa(lp81
g21
ag23
ag25
ag27
a(lp82
I10
ag79
aa(lp83
I11
ag19
aaa(lp84
g41
ag43
ag45
ag46
a(lp85
I10
ag79
aa(lp86
I11
ag19
aaa(lp87
(lp88
I7
aS'off'
p89
aa(lp90
I6
aS'off'
p91
aa(lp92
I5
ag11
aa(lp93
I2
ag13
aa(lp94
I3
ag15
aa(lp95
I4
ag57
aaa(lp96
g2
ag4
ag6
a(lp97
I6
ag31
aa(lp98
I4
ag33
aa(lp99
I11
ag19
aaa(lp100
g2
ag4
ag6
ag8
a(lp101
I5
ag76
aa(lp102
I9
aS'off'
p103
aaa(lp104
g2
ag4
ag6
ag97
a(lp105
I4
ag71
aaa(lp106
g59
ag61
a(lp107
I6
ag31
aa(lp108
I4
ag33
aa(lp109
I11
ag19
aaa(lp110
g59
ag61
ag63
ag64
a(lp111
I2
ag39
aaa(lp112
g21
ag23
ag25
a(lp113
I9
ag103
aaa(lp114
g21
ag23
a(lp115
I5
aS'on'
p116
aa(lp117
I2
ag39
aaa(lp118
g21
a(lp119
I3
aS'on'
p120
aa(lp121
I4
ag17
aa(lp122
I11
ag19
aaa(lp123
g41
a(lp124
I3
ag15
aa(lp125
I4
ag17
aa(lp126
I11
ag19
aaa(lp127
g41
ag43
ag45
a(lp128
I9
ag103
aaa(lp129
g41
ag43
a(lp130
I5
ag116
aa(lp131
I2
ag39
aaa(lp132
g88
ag90
ag92
a(lp133
I2
ag39
aaa(lp134
g88
ag90
a(lp135
I5
ag76
aa(lp136
I9
ag103
aaa(lp137
g2
ag4
a(lp138
I10
ag79
aa(lp139
I11
ag19
aaa(lp140
g59
ag61
ag107
a(lp141
I4
ag71
aaa(lp142
g41
ag124
a(lp143
I4
ag57
aaa(lp144
g88
a(lp145
I6
aS'on'
p146
aa(lp147
I4
ag71
aaa(lp148
g59
a(lp149
I10
aS'on'
p150
aa(lp151
I11
ag19
aaa(lp152
g2
a(lp153
I9
aS'on'
p154
aaa(lp155
(lp156
I1
aS'on'
p157
aaa(lp158
(lp159
I2
aS'on'
p160
aaa(lp161
(lp162
I7
aS'on'
p163
aaa(lp164
(lp165
I8
aS'on'
p166
aaa(lp167
(lp168
I12
aS'on'
p169
aaa.